(lp0
(I566
I31
I47
I26
I77
tp1
a(I566
I30
I47
I26
I77
tp2
a(I567
I30
I46
I26
I77
tp3
a(I567
I29
I46
I20
I82
tp4
a(I567
I28
I46
I22
I80
tp5
a(I567
I27
I46
I20
I82
tp6
a(I568
I27
I45
I0
I0
tp7
a(I567
I26
I46
I22
I81
tp8
a(I568
I26
I45
I22
I83
tp9
a(I567
I25
I46
I18
I82
tp10
a(I568
I25
I45
I21
I80
tp11
a(I568
I24
I45
I20
I81
tp12
a(I568
I23
I45
I21
I81
tp13
a(I568
I22
I45
I21
I81
tp14
a(I569
I22
I44
I23
I81
tp15
a(I568
I21
I45
I21
I81
tp16
a(I569
I21
I44
I20
I79
tp17
a(I568
I20
I45
I21
I80
tp18
a(I569
I20
I44
I21
I81
tp19
a(I568
I19
I45
I20
I83
tp20
a(I569
I19
I44
I20
I80
tp21
a(I568
I18
I45
I14
I85
tp22
a(I569
I18
I44
I21
I81
tp23
a(I569
I17
I44
I21
I81
tp24
a(I570
I17
I43
I19
I85
tp25
a(I569
I16
I44
I21
I81
tp26
a(I570
I16
I43
I22
I80
tp27
a(I569
I15
I44
I21
I82
tp28
a(I570
I15
I43
I20
I82
tp29
a(I569
I14
I44
I20
I81
tp30
a(I570
I14
I43
I21
I81
tp31
a(I569
I13
I44
I20
I82
tp32
a(I570
I13
I43
I21
I81
tp33
a(I569
I12
I44
I21
I81
tp34
a(I570
I12
I43
I21
I82
tp35
a(I571
I12
I42
I0
I0
tp36
a(I569
I11
I44
I22
I80
tp37
a(I570
I11
I43
I21
I81
tp38
a(I571
I11
I42
I23
I83
tp39
a(I569
I10
I44
I23
I79
tp40
a(I570
I10
I43
I21
I81
tp41
a(I571
I10
I42
I21
I81
tp42
a(I569
I9
I44
I18
I82
tp43
a(I570
I9
I43
I21
I81
tp44
a(I571
I9
I42
I22
I82
tp45
a(I569
I8
I44
I26
I77
tp46
a(I570
I8
I43
I21
I81
tp47
a(I571
I8
I42
I22
I80
tp48
a(I570
I7
I43
I21
I81
tp49
a(I571
I7
I42
I21
I81
tp50
a(I570
I6
I43
I21
I81
tp51
a(I571
I6
I42
I21
I81
tp52
a(I570
I5
I43
I22
I81
tp53
a(I571
I5
I42
I21
I81
tp54
a(I570
I4
I43
I21
I81
tp55
a(I571
I4
I42
I21
I81
tp56
a(I572
I4
I41
I24
I85
tp57
a(I570
I3
I43
I21
I82
tp58
a(I571
I3
I42
I21
I81
tp59
a(I572
I3
I41
I23
I79
tp60
a(I570
I2
I43
I21
I81
tp61
a(I571
I2
I42
I21
I81
tp62
a(I572
I2
I41
I20
I81
tp63
a(I570
I1
I43
I22
I81
tp64
a(I571
I1
I42
I21
I81
tp65
a(I572
I1
I41
I20
I81
tp66
a(I570
I0
I43
I20
I82
tp67
a(I571
I0
I42
I21
I81
tp68
a(I572
I0
I41
I22
I80
tp69
a(I127
I23
I184
I239
I41
tp70
a(I127
I22
I183
I238
I38
tp71
a(I127
I21
I182
I238
I39
tp72
a(I127
I20
I181
I238
I39
tp73
a(I127
I19
I180
I238
I39
tp74
a(I127
I18
I179
I238
I39
tp75
a(I127
I17
I178
I238
I39
tp76
a(I127
I16
I177
I238
I39
tp77
a(I127
I15
I176
I238
I39
tp78
a(I127
I14
I175
I238
I39
tp79
a(I127
I13
I174
I238
I39
tp80
a(I127
I12
I173
I238
I39
tp81
a(I127
I11
I172
I238
I39
tp82
a(I127
I10
I171
I238
I39
tp83
a(I127
I9
I170
I238
I39
tp84
a(I127
I8
I169
I238
I39
tp85
a(I127
I7
I168
I238
I39
tp86
a(I127
I6
I167
I238
I39
tp87
a(I127
I5
I166
I238
I39
tp88
a(I127
I4
I165
I238
I39
tp89
a(I127
I3
I164
I238
I39
tp90
a(I127
I2
I163
I238
I39
tp91
a(I127
I1
I162
I238
I39
tp92
a(I127
I0
I161
I238
I39
tp93
a(I128
I0
I160
I238
I39
tp94
a(I128
I1
I159
I238
I39
tp95
a(I128
I2
I158
I238
I39
tp96
a(I128
I3
I157
I238
I39
tp97
a(I128
I4
I156
I238
I39
tp98
a(I128
I5
I155
I238
I39
tp99
a(I128
I6
I154
I238
I39
tp100
a(I128
I7
I153
I238
I39
tp101
a(I128
I8
I152
I238
I39
tp102
a(I128
I9
I151
I238
I39
tp103
a(I128
I10
I150
I238
I39
tp104
a(I128
I11
I149
I238
I39
tp105
a(I128
I12
I148
I238
I39
tp106
a(I128
I13
I147
I238
I39
tp107
a(I128
I14
I146
I238
I39
tp108
a(I128
I15
I145
I238
I39
tp109
a(I128
I16
I144
I238
I39
tp110
a(I128
I17
I143
I238
I39
tp111
a(I128
I18
I142
I238
I39
tp112
a(I128
I19
I141
I238
I39
tp113
a(I128
I20
I140
I238
I39
tp114
a(I128
I21
I139
I238
I39
tp115
a(I128
I22
I138
I238
I39
tp116
a(I128
I23
I137
I238
I39
tp117
a(I128
I24
I136
I238
I39
tp118
a(I128
I25
I135
I238
I39
tp119
a(I128
I26
I134
I238
I39
tp120
a(I128
I27
I133
I238
I39
tp121
a(I128
I28
I132
I238
I39
tp122
a(I128
I29
I131
I238
I39
tp123
a(I128
I30
I130
I238
I39
tp124
a(I128
I31
I129
I238
I39
tp125
a(I255
I31
I128
I238
I39
tp126
a(I255
I30
I127
I238
I39
tp127
a(I255
I29
I126
I238
I39
tp128
a(I255
I28
I125
I238
I39
tp129
a(I255
I27
I124
I238
I39
tp130
a(I255
I26
I123
I238
I39
tp131
a(I255
I25
I122
I238
I39
tp132
a(I255
I24
I121
I238
I39
tp133
a(I255
I23
I120
I238
I39
tp134
a(I255
I22
I119
I238
I39
tp135
a(I255
I21
I118
I238
I39
tp136
a(I255
I20
I117
I238
I39
tp137
a(I255
I19
I116
I255
I51
tp138
a(I511
I10
I43
I21
I81
tp139
a(I511
I9
I42
I21
I81
tp140
a(I511
I8
I41
I20
I81
tp141
a(I576
I18
I13
I238
I39
tp142
a(I576
I19
I12
I238
I38
tp143
a(I576
I20
I11
I238
I39
tp144
a(I576
I21
I10
I238
I39
tp145
a(I576
I22
I9
I255
I36
tp146
a(I126
I25
I186
I255
I36
tp147
a(I126
I24
I185
I239
I39
tp148
a(I126
I23
I184
I238
I39
tp149
a(I126
I22
I183
I238
I39
tp150
a(I126
I21
I182
I238
I39
tp151
a(I126
I20
I181
I238
I39
tp152
a(I126
I19
I180
I238
I39
tp153
a(I126
I18
I179
I238
I39
tp154
a(I126
I17
I178
I238
I39
tp155
a(I126
I16
I177
I238
I39
tp156
a(I126
I15
I176
I238
I39
tp157
a(I126
I14
I175
I238
I39
tp158
a(I126
I13
I174
I238
I39
tp159
a(I126
I12
I173
I238
I39
tp160
a(I126
I11
I172
I238
I39
tp161
a(I126
I10
I171
I238
I39
tp162
a(I126
I9
I170
I238
I39
tp163
a(I126
I8
I169
I238
I39
tp164
a(I126
I7
I168
I238
I39
tp165
a(I126
I6
I167
I238
I39
tp166
a(I126
I5
I166
I238
I39
tp167
a(I126
I4
I165
I238
I39
tp168
a(I126
I3
I164
I238
I39
tp169
a(I126
I2
I163
I238
I39
tp170
a(I126
I1
I162
I238
I39
tp171
a(I126
I0
I161
I238
I39
tp172
a(I129
I0
I160
I238
I39
tp173
a(I129
I1
I159
I238
I39
tp174
a(I129
I2
I158
I238
I39
tp175
a(I129
I3
I157
I238
I39
tp176
a(I129
I4
I156
I238
I39
tp177
a(I129
I5
I155
I238
I39
tp178
a(I129
I6
I154
I238
I39
tp179
a(I129
I7
I153
I238
I39
tp180
a(I129
I8
I152
I238
I39
tp181
a(I129
I9
I151
I238
I39
tp182
a(I129
I10
I150
I238
I39
tp183
a(I129
I11
I149
I238
I39
tp184
a(I129
I12
I148
I238
I39
tp185
a(I129
I13
I147
I238
I39
tp186
a(I129
I14
I146
I238
I39
tp187
a(I129
I15
I145
I238
I39
tp188
a(I129
I16
I144
I238
I39
tp189
a(I129
I17
I143
I238
I39
tp190
a(I129
I18
I142
I238
I39
tp191
a(I129
I19
I141
I238
I39
tp192
a(I129
I20
I140
I238
I39
tp193
a(I129
I21
I139
I238
I39
tp194
a(I129
I22
I138
I238
I39
tp195
a(I129
I23
I137
I238
I39
tp196
a(I129
I24
I136
I238
I39
tp197
a(I129
I25
I135
I238
I39
tp198
a(I129
I26
I134
I238
I39
tp199
a(I129
I27
I133
I238
I39
tp200
a(I129
I28
I132
I238
I39
tp201
a(I129
I29
I131
I238
I39
tp202
a(I129
I30
I130
I238
I39
tp203
a(I129
I31
I129
I238
I39
tp204
a(I254
I31
I128
I238
I39
tp205
a(I254
I30
I127
I238
I39
tp206
a(I254
I29
I126
I238
I39
tp207
a(I254
I28
I125
I238
I39
tp208
a(I254
I27
I124
I238
I39
tp209
a(I254
I26
I123
I238
I39
tp210
a(I254
I25
I122
I238
I39
tp211
a(I254
I24
I121
I238
I39
tp212
a(I254
I23
I120
I238
I39
tp213
a(I254
I22
I119
I238
I39
tp214
a(I254
I21
I118
I238
I39
tp215
a(I254
I20
I117
I238
I39
tp216
a(I254
I19
I116
I238
I40
tp217
a(I254
I18
I115
I240
I38
tp218
a(I510
I10
I43
I20
I82
tp219
a(I510
I9
I42
I21
I81
tp220
a(I510
I8
I41
I21
I81
tp221
a(I577
I16
I15
I255
I43
tp222
a(I577
I17
I14
I238
I40
tp223
a(I577
I18
I13
I238
I39
tp224
a(I577
I19
I12
I238
I39
tp225
a(I577
I20
I11
I238
I39
tp226
a(I577
I21
I10
I255
I64
tp227
a(I125
I26
I187
I237
I41
tp228
a(I125
I25
I186
I238
I39
tp229
a(I125
I24
I185
I238
I39
tp230
a(I125
I23
I184
I238
I39
tp231
a(I125
I22
I183
I238
I39
tp232
a(I125
I21
I182
I238
I39
tp233
a(I125
I20
I181
I238
I39
tp234
a(I125
I19
I180
I238
I39
tp235
a(I125
I18
I179
I238
I39
tp236
a(I125
I17
I178
I238
I39
tp237
a(I125
I16
I177
I238
I39
tp238
a(I125
I15
I176
I238
I39
tp239
a(I125
I14
I175
I238
I39
tp240
a(I125
I13
I174
I238
I39
tp241
a(I125
I12
I173
I238
I39
tp242
a(I125
I11
I172
I238
I39
tp243
a(I125
I10
I171
I238
I39
tp244
a(I125
I9
I170
I238
I39
tp245
a(I125
I8
I169
I238
I39
tp246
a(I125
I7
I168
I238
I39
tp247
a(I125
I6
I167
I238
I39
tp248
a(I125
I5
I166
I238
I39
tp249
a(I125
I4
I165
I238
I39
tp250
a(I125
I3
I164
I238
I39
tp251
a(I125
I2
I163
I238
I39
tp252
a(I125
I1
I162
I238
I39
tp253
a(I125
I0
I161
I238
I39
tp254
a(I130
I0
I160
I238
I39
tp255
a(I130
I1
I159
I238
I39
tp256
a(I130
I2
I158
I238
I39
tp257
a(I130
I3
I157
I238
I39
tp258
a(I130
I4
I156
I238
I39
tp259
a(I130
I5
I155
I238
I39
tp260
a(I130
I6
I154
I238
I39
tp261
a(I130
I7
I153
I238
I39
tp262
a(I130
I8
I152
I238
I39
tp263
a(I130
I9
I151
I238
I39
tp264
a(I130
I10
I150
I238
I39
tp265
a(I130
I11
I149
I238
I39
tp266
a(I130
I12
I148
I238
I39
tp267
a(I130
I13
I147
I238
I39
tp268
a(I130
I14
I146
I238
I39
tp269
a(I130
I15
I145
I238
I39
tp270
a(I130
I16
I144
I238
I39
tp271
a(I130
I17
I143
I238
I39
tp272
a(I130
I18
I142
I238
I39
tp273
a(I130
I19
I141
I238
I39
tp274
a(I130
I20
I140
I238
I39
tp275
a(I130
I21
I139
I238
I39
tp276
a(I130
I22
I138
I238
I39
tp277
a(I130
I23
I137
I238
I39
tp278
a(I130
I24
I136
I238
I39
tp279
a(I130
I25
I135
I238
I39
tp280
a(I130
I26
I134
I238
I39
tp281
a(I130
I27
I133
I238
I39
tp282
a(I130
I28
I132
I238
I39
tp283
a(I130
I29
I131
I238
I39
tp284
a(I130
I30
I130
I238
I39
tp285
a(I130
I31
I129
I238
I39
tp286
a(I253
I31
I128
I238
I39
tp287
a(I253
I30
I127
I238
I39
tp288
a(I253
I29
I126
I238
I39
tp289
a(I253
I28
I125
I238
I39
tp290
a(I253
I27
I124
I238
I39
tp291
a(I253
I26
I123
I238
I39
tp292
a(I253
I25
I122
I238
I39
tp293
a(I253
I24
I121
I238
I39
tp294
a(I253
I23
I120
I238
I39
tp295
a(I253
I22
I119
I238
I39
tp296
a(I253
I21
I118
I238
I39
tp297
a(I253
I20
I117
I238
I39
tp298
a(I253
I19
I116
I238
I39
tp299
a(I253
I18
I115
I238
I39
tp300
a(I253
I17
I114
I237
I39
tp301
a(I509
I10
I43
I21
I81
tp302
a(I509
I9
I42
I21
I81
tp303
a(I509
I8
I41
I21
I81
tp304
a(I578
I15
I16
I236
I37
tp305
a(I578
I16
I15
I238
I39
tp306
a(I578
I17
I14
I238
I39
tp307
a(I578
I18
I13
I238
I39
tp308
a(I578
I19
I12
I238
I39
tp309
a(I578
I20
I11
I255
I0
tp310
a(I124
I28
I189
I255
I43
tp311
a(I124
I27
I188
I238
I38
tp312
a(I124
I26
I187
I238
I39
tp313
a(I124
I25
I186
I238
I39
tp314
a(I124
I24
I185
I238
I39
tp315
a(I124
I23
I184
I238
I39
tp316
a(I124
I22
I183
I238
I39
tp317
a(I124
I21
I182
I238
I39
tp318
a(I124
I20
I181
I238
I39
tp319
a(I124
I19
I180
I238
I39
tp320
a(I124
I18
I179
I238
I39
tp321
a(I124
I17
I178
I238
I39
tp322
a(I124
I16
I177
I238
I39
tp323
a(I124
I15
I176
I238
I39
tp324
a(I124
I14
I175
I238
I39
tp325
a(I124
I13
I174
I238
I39
tp326
a(I124
I12
I173
I238
I39
tp327
a(I124
I11
I172
I238
I39
tp328
a(I124
I10
I171
I238
I39
tp329
a(I124
I9
I170
I238
I39
tp330
a(I124
I8
I169
I238
I39
tp331
a(I124
I7
I168
I238
I39
tp332
a(I124
I6
I167
I238
I39
tp333
a(I124
I5
I166
I238
I39
tp334
a(I124
I4
I165
I238
I39
tp335
a(I124
I3
I164
I238
I39
tp336
a(I124
I2
I163
I238
I39
tp337
a(I124
I1
I162
I238
I39
tp338
a(I124
I0
I161
I238
I39
tp339
a(I131
I0
I160
I238
I39
tp340
a(I131
I1
I159
I238
I39
tp341
a(I131
I2
I158
I238
I39
tp342
a(I131
I3
I157
I238
I39
tp343
a(I131
I4
I156
I238
I39
tp344
a(I131
I5
I155
I238
I39
tp345
a(I131
I6
I154
I238
I39
tp346
a(I131
I7
I153
I238
I39
tp347
a(I131
I8
I152
I238
I39
tp348
a(I131
I9
I151
I238
I39
tp349
a(I131
I10
I150
I238
I39
tp350
a(I131
I11
I149
I238
I39
tp351
a(I131
I12
I148
I238
I39
tp352
a(I131
I13
I147
I238
I39
tp353
a(I131
I14
I146
I238
I39
tp354
a(I131
I15
I145
I238
I39
tp355
a(I131
I16
I144
I238
I39
tp356
a(I131
I17
I143
I238
I39
tp357
a(I131
I18
I142
I238
I39
tp358
a(I131
I19
I141
I238
I39
tp359
a(I131
I20
I140
I238
I39
tp360
a(I131
I21
I139
I238
I39
tp361
a(I131
I22
I138
I238
I39
tp362
a(I131
I23
I137
I238
I39
tp363
a(I131
I24
I136
I238
I39
tp364
a(I131
I25
I135
I238
I39
tp365
a(I131
I26
I134
I238
I39
tp366
a(I131
I27
I133
I238
I39
tp367
a(I131
I28
I132
I238
I39
tp368
a(I131
I29
I131
I238
I39
tp369
a(I131
I30
I130
I238
I39
tp370
a(I131
I31
I129
I238
I39
tp371
a(I252
I31
I128
I238
I39
tp372
a(I252
I30
I127
I238
I39
tp373
a(I252
I29
I126
I238
I39
tp374
a(I252
I28
I125
I238
I39
tp375
a(I252
I27
I124
I238
I39
tp376
a(I252
I26
I123
I238
I39
tp377
a(I252
I25
I122
I238
I39
tp378
a(I252
I24
I121
I238
I39
tp379
a(I252
I23
I120
I238
I39
tp380
a(I252
I22
I119
I238
I39
tp381
a(I252
I21
I118
I238
I39
tp382
a(I252
I20
I117
I238
I39
tp383
a(I252
I19
I116
I238
I39
tp384
a(I252
I18
I115
I238
I39
tp385
a(I252
I17
I114
I238
I39
tp386
a(I252
I16
I113
I237
I38
tp387
a(I252
I15
I112
I234
I43
tp388
a(I508
I10
I43
I22
I83
tp389
a(I508
I9
I42
I21
I81
tp390
a(I508
I8
I41
I21
I81
tp391
a(I579
I13
I18
I240
I45
tp392
a(I579
I14
I17
I238
I40
tp393
a(I579
I15
I16
I238
I39
tp394
a(I579
I16
I15
I238
I39
tp395
a(I579
I17
I14
I238
I39
tp396
a(I579
I18
I13
I239
I39
tp397
a(I123
I29
I190
I238
I39
tp398
a(I123
I28
I189
I238
I39
tp399
a(I123
I27
I188
I238
I39
tp400
a(I123
I26
I187
I238
I39
tp401
a(I123
I25
I186
I238
I39
tp402
a(I123
I24
I185
I238
I39
tp403
a(I123
I23
I184
I238
I39
tp404
a(I123
I22
I183
I238
I39
tp405
a(I123
I21
I182
I238
I39
tp406
a(I123
I20
I181
I238
I39
tp407
a(I123
I19
I180
I238
I39
tp408
a(I123
I18
I179
I238
I39
tp409
a(I123
I17
I178
I238
I39
tp410
a(I123
I16
I177
I238
I39
tp411
a(I123
I15
I176
I238
I39
tp412
a(I123
I14
I175
I238
I39
tp413
a(I123
I13
I174
I238
I39
tp414
a(I123
I12
I173
I238
I39
tp415
a(I123
I11
I172
I238
I39
tp416
a(I123
I10
I171
I238
I39
tp417
a(I123
I9
I170
I238
I39
tp418
a(I123
I8
I169
I238
I39
tp419
a(I123
I7
I168
I238
I39
tp420
a(I123
I6
I167
I238
I39
tp421
a(I123
I5
I166
I238
I39
tp422
a(I123
I4
I165
I238
I39
tp423
a(I123
I3
I164
I238
I39
tp424
a(I123
I2
I163
I238
I39
tp425
a(I123
I1
I162
I238
I39
tp426
a(I123
I0
I161
I238
I39
tp427
a(I132
I0
I160
I238
I39
tp428
a(I132
I1
I159
I238
I39
tp429
a(I132
I2
I158
I238
I39
tp430
a(I132
I3
I157
I238
I39
tp431
a(I132
I4
I156
I238
I39
tp432
a(I132
I5
I155
I238
I39
tp433
a(I132
I6
I154
I238
I39
tp434
a(I132
I7
I153
I238
I39
tp435
a(I132
I8
I152
I238
I39
tp436
a(I132
I9
I151
I238
I39
tp437
a(I132
I10
I150
I238
I39
tp438
a(I132
I11
I149
I238
I39
tp439
a(I132
I12
I148
I238
I39
tp440
a(I132
I13
I147
I238
I39
tp441
a(I132
I14
I146
I238
I39
tp442
a(I132
I15
I145
I238
I39
tp443
a(I132
I16
I144
I238
I39
tp444
a(I132
I17
I143
I238
I39
tp445
a(I132
I18
I142
I238
I39
tp446
a(I132
I19
I141
I238
I39
tp447
a(I132
I20
I140
I238
I39
tp448
a(I132
I21
I139
I238
I39
tp449
a(I132
I22
I138
I238
I39
tp450
a(I132
I23
I137
I238
I39
tp451
a(I132
I24
I136
I238
I39
tp452
a(I132
I25
I135
I238
I39
tp453
a(I132
I26
I134
I238
I39
tp454
a(I132
I27
I133
I238
I39
tp455
a(I132
I28
I132
I238
I39
tp456
a(I132
I29
I131
I238
I39
tp457
a(I132
I30
I130
I238
I39
tp458
a(I132
I31
I129
I238
I39
tp459
a(I251
I31
I128
I238
I39
tp460
a(I251
I30
I127
I238
I39
tp461
a(I251
I29
I126
I238
I39
tp462
a(I251
I28
I125
I238
I39
tp463
a(I251
I27
I124
I238
I39
tp464
a(I251
I26
I123
I238
I39
tp465
a(I251
I25
I122
I238
I39
tp466
a(I251
I24
I121
I238
I39
tp467
a(I251
I23
I120
I238
I39
tp468
a(I251
I22
I119
I238
I39
tp469
a(I251
I21
I118
I238
I39
tp470
a(I251
I20
I117
I238
I39
tp471
a(I251
I19
I116
I238
I39
tp472
a(I251
I18
I115
I238
I39
tp473
a(I251
I17
I114
I238
I39
tp474
a(I251
I16
I113
I238
I39
tp475
a(I251
I15
I112
I238
I39
tp476
a(I251
I14
I111
I239
I37
tp477
a(I507
I10
I43
I23
I83
tp478
a(I507
I9
I42
I21
I81
tp479
a(I507
I8
I41
I21
I81
tp480
a(I507
I7
I40
I26
I77
tp481
a(I580
I12
I19
I238
I39
tp482
a(I580
I13
I18
I237
I39
tp483
a(I580
I14
I17
I238
I39
tp484
a(I580
I15
I16
I238
I39
tp485
a(I580
I16
I15
I238
I39
tp486
a(I580
I17
I14
I237
I40
tp487
a(I122
I30
I191
I238
I40
tp488
a(I122
I29
I190
I238
I39
tp489
a(I122
I28
I189
I238
I39
tp490
a(I122
I27
I188
I238
I39
tp491
a(I122
I26
I187
I238
I39
tp492
a(I122
I25
I186
I238
I39
tp493
a(I122
I24
I185
I238
I39
tp494
a(I122
I23
I184
I238
I39
tp495
a(I122
I22
I183
I238
I39
tp496
a(I122
I21
I182
I238
I39
tp497
a(I122
I20
I181
I238
I39
tp498
a(I122
I19
I180
I238
I39
tp499
a(I122
I18
I179
I238
I39
tp500
a(I122
I17
I178
I238
I39
tp501
a(I122
I16
I177
I238
I39
tp502
a(I122
I15
I176
I238
I39
tp503
a(I122
I14
I175
I238
I39
tp504
a(I122
I13
I174
I238
I39
tp505
a(I122
I12
I173
I238
I39
tp506
a(I122
I11
I172
I238
I39
tp507
a(I122
I10
I171
I238
I39
tp508
a(I122
I9
I170
I238
I39
tp509
a(I122
I8
I169
I238
I39
tp510
a(I122
I7
I168
I238
I39
tp511
a(I122
I6
I167
I238
I39
tp512
a(I122
I5
I166
I238
I39
tp513
a(I122
I4
I165
I238
I39
tp514
a(I122
I3
I164
I238
I39
tp515
a(I122
I2
I163
I238
I39
tp516
a(I122
I1
I162
I238
I39
tp517
a(I122
I0
I161
I238
I39
tp518
a(I133
I0
I160
I238
I39
tp519
a(I133
I1
I159
I238
I39
tp520
a(I133
I2
I158
I238
I39
tp521
a(I133
I3
I157
I238
I39
tp522
a(I133
I4
I156
I238
I39
tp523
a(I133
I5
I155
I238
I39
tp524
a(I133
I6
I154
I238
I39
tp525
a(I133
I7
I153
I238
I39
tp526
a(I133
I8
I152
I238
I39
tp527
a(I133
I9
I151
I238
I39
tp528
a(I133
I10
I150
I238
I39
tp529
a(I133
I11
I149
I238
I39
tp530
a(I133
I12
I148
I238
I39
tp531
a(I133
I13
I147
I238
I39
tp532
a(I133
I14
I146
I238
I39
tp533
a(I133
I15
I145
I238
I39
tp534
a(I133
I16
I144
I238
I39
tp535
a(I133
I17
I143
I238
I39
tp536
a(I133
I18
I142
I238
I39
tp537
a(I133
I19
I141
I238
I39
tp538
a(I133
I20
I140
I238
I39
tp539
a(I133
I21
I139
I238
I39
tp540
a(I133
I22
I138
I238
I39
tp541
a(I133
I23
I137
I238
I39
tp542
a(I133
I24
I136
I238
I39
tp543
a(I133
I25
I135
I238
I39
tp544
a(I133
I26
I134
I238
I39
tp545
a(I133
I27
I133
I238
I39
tp546
a(I133
I28
I132
I238
I39
tp547
a(I133
I29
I131
I238
I39
tp548
a(I133
I30
I130
I238
I39
tp549
a(I133
I31
I129
I238
I39
tp550
a(I250
I31
I128
I238
I39
tp551
a(I250
I30
I127
I238
I39
tp552
a(I250
I29
I126
I238
I39
tp553
a(I250
I28
I125
I238
I39
tp554
a(I250
I27
I124
I238
I39
tp555
a(I250
I26
I123
I238
I39
tp556
a(I250
I25
I122
I238
I39
tp557
a(I250
I24
I121
I238
I39
tp558
a(I250
I23
I120
I238
I39
tp559
a(I250
I22
I119
I238
I39
tp560
a(I250
I21
I118
I238
I39
tp561
a(I250
I20
I117
I238
I39
tp562
a(I250
I19
I116
I238
I39
tp563
a(I250
I18
I115
I238
I39
tp564
a(I250
I17
I114
I238
I39
tp565
a(I250
I16
I113
I238
I39
tp566
a(I250
I15
I112
I238
I39
tp567
a(I250
I14
I111
I238
I39
tp568
a(I250
I13
I110
I239
I40
tp569
a(I250
I12
I109
I255
I0
tp570
a(I506
I10
I43
I19
I82
tp571
a(I506
I9
I42
I21
I81
tp572
a(I506
I8
I41
I21
I81
tp573
a(I506
I7
I40
I21
I78
tp574
a(I581
I10
I21
I241
I41
tp575
a(I581
I11
I20
I239
I40
tp576
a(I581
I12
I19
I238
I39
tp577
a(I581
I13
I18
I238
I39
tp578
a(I581
I14
I17
I238
I39
tp579
a(I581
I15
I16
I238
I39
tp580
a(I581
I16
I15
I238
I38
tp581
a(I6
I31
I193
I239
I32
tp582
a(I121
I31
I192
I237
I38
tp583
a(I121
I30
I191
I238
I39
tp584
a(I121
I29
I190
I238
I39
tp585
a(I121
I28
I189
I238
I39
tp586
a(I121
I27
I188
I238
I39
tp587
a(I121
I26
I187
I238
I39
tp588
a(I121
I25
I186
I238
I39
tp589
a(I121
I24
I185
I238
I39
tp590
a(I121
I23
I184
I238
I39
tp591
a(I121
I22
I183
I238
I39
tp592
a(I121
I21
I182
I238
I39
tp593
a(I121
I20
I181
I238
I39
tp594
a(I121
I19
I180
I238
I39
tp595
a(I121
I18
I179
I238
I39
tp596
a(I121
I17
I178
I238
I39
tp597
a(I121
I16
I177
I238
I39
tp598
a(I121
I15
I176
I238
I39
tp599
a(I121
I14
I175
I238
I39
tp600
a(I121
I13
I174
I238
I39
tp601
a(I121
I12
I173
I238
I39
tp602
a(I121
I11
I172
I238
I39
tp603
a(I121
I10
I171
I238
I39
tp604
a(I121
I9
I170
I238
I39
tp605
a(I121
I8
I169
I238
I39
tp606
a(I121
I7
I168
I238
I39
tp607
a(I121
I6
I167
I238
I39
tp608
a(I121
I5
I166
I238
I39
tp609
a(I121
I4
I165
I238
I39
tp610
a(I121
I3
I164
I238
I39
tp611
a(I121
I2
I163
I238
I39
tp612
a(I121
I1
I162
I238
I39
tp613
a(I121
I0
I161
I238
I39
tp614
a(I134
I0
I160
I238
I39
tp615
a(I134
I1
I159
I238
I39
tp616
a(I134
I2
I158
I238
I39
tp617
a(I134
I3
I157
I238
I39
tp618
a(I134
I4
I156
I238
I39
tp619
a(I134
I5
I155
I238
I39
tp620
a(I134
I6
I154
I238
I39
tp621
a(I134
I7
I153
I238
I39
tp622
a(I134
I8
I152
I238
I39
tp623
a(I134
I9
I151
I238
I39
tp624
a(I134
I10
I150
I238
I39
tp625
a(I134
I11
I149
I238
I39
tp626
a(I134
I12
I148
I238
I39
tp627
a(I134
I13
I147
I238
I39
tp628
a(I134
I14
I146
I238
I39
tp629
a(I134
I15
I145
I238
I39
tp630
a(I134
I16
I144
I238
I39
tp631
a(I134
I17
I143
I238
I39
tp632
a(I134
I18
I142
I238
I39
tp633
a(I134
I19
I141
I238
I39
tp634
a(I134
I20
I140
I238
I39
tp635
a(I134
I21
I139
I238
I39
tp636
a(I134
I22
I138
I238
I39
tp637
a(I134
I23
I137
I238
I39
tp638
a(I134
I24
I136
I238
I39
tp639
a(I134
I25
I135
I238
I39
tp640
a(I134
I26
I134
I238
I39
tp641
a(I134
I27
I133
I238
I39
tp642
a(I134
I28
I132
I238
I39
tp643
a(I134
I29
I131
I238
I39
tp644
a(I134
I30
I130
I238
I39
tp645
a(I134
I31
I129
I238
I39
tp646
a(I249
I31
I128
I238
I39
tp647
a(I249
I30
I127
I238
I39
tp648
a(I249
I29
I126
I238
I39
tp649
a(I249
I28
I125
I238
I39
tp650
a(I249
I27
I124
I238
I39
tp651
a(I249
I26
I123
I238
I39
tp652
a(I249
I25
I122
I238
I39
tp653
a(I249
I24
I121
I238
I39
tp654
a(I249
I23
I120
I238
I39
tp655
a(I249
I22
I119
I238
I39
tp656
a(I249
I21
I118
I238
I39
tp657
a(I249
I20
I117
I238
I39
tp658
a(I249
I19
I116
I238
I39
tp659
a(I249
I18
I115
I238
I39
tp660
a(I249
I17
I114
I238
I39
tp661
a(I249
I16
I113
I238
I39
tp662
a(I249
I15
I112
I238
I39
tp663
a(I249
I14
I111
I238
I39
tp664
a(I249
I13
I110
I238
I39
tp665
a(I249
I12
I109
I238
I39
tp666
a(I249
I11
I108
I240
I45
tp667
a(I505
I10
I43
I20
I80
tp668
a(I505
I9
I42
I21
I81
tp669
a(I505
I8
I41
I21
I81
tp670
a(I505
I7
I40
I21
I81
tp671
a(I582
I8
I23
I243
I36
tp672
a(I582
I9
I22
I238
I38
tp673
a(I582
I10
I21
I238
I39
tp674
a(I582
I11
I20
I238
I39
tp675
a(I582
I12
I19
I238
I39
tp676
a(I582
I13
I18
I238
I39
tp677
a(I582
I14
I17
I238
I39
tp678
a(I582
I15
I16
I236
I38
tp679
a(I7
I30
I194
I236
I38
tp680
a(I7
I31
I193
I238
I39
tp681
a(I120
I31
I192
I238
I39
tp682
a(I120
I30
I191
I238
I39
tp683
a(I120
I29
I190
I238
I39
tp684
a(I120
I28
I189
I238
I39
tp685
a(I120
I27
I188
I238
I39
tp686
a(I120
I26
I187
I238
I39
tp687
a(I120
I25
I186
I238
I39
tp688
a(I120
I24
I185
I238
I39
tp689
a(I120
I23
I184
I238
I39
tp690
a(I120
I22
I183
I238
I39
tp691
a(I120
I21
I182
I238
I39
tp692
a(I120
I20
I181
I238
I39
tp693
a(I120
I19
I180
I238
I39
tp694
a(I120
I18
I179
I238
I39
tp695
a(I120
I17
I178
I238
I39
tp696
a(I120
I16
I177
I238
I39
tp697
a(I120
I15
I176
I238
I39
tp698
a(I120
I14
I175
I238
I39
tp699
a(I120
I13
I174
I238
I39
tp700
a(I120
I12
I173
I238
I39
tp701
a(I120
I11
I172
I238
I39
tp702
a(I120
I10
I171
I238
I39
tp703
a(I120
I9
I170
I238
I39
tp704
a(I120
I8
I169
I238
I39
tp705
a(I120
I7
I168
I238
I39
tp706
a(I120
I6
I167
I238
I39
tp707
a(I120
I5
I166
I238
I39
tp708
a(I120
I4
I165
I238
I39
tp709
a(I120
I3
I164
I238
I39
tp710
a(I120
I2
I163
I238
I39
tp711
a(I120
I1
I162
I238
I39
tp712
a(I120
I0
I161
I238
I39
tp713
a(I135
I0
I160
I238
I39
tp714
a(I135
I1
I159
I238
I39
tp715
a(I135
I2
I158
I238
I39
tp716
a(I135
I3
I157
I238
I39
tp717
a(I135
I4
I156
I238
I39
tp718
a(I135
I5
I155
I238
I39
tp719
a(I135
I6
I154
I238
I39
tp720
a(I135
I7
I153
I238
I39
tp721
a(I135
I8
I152
I238
I39
tp722
a(I135
I9
I151
I238
I39
tp723
a(I135
I10
I150
I238
I39
tp724
a(I135
I11
I149
I238
I39
tp725
a(I135
I12
I148
I238
I39
tp726
a(I135
I13
I147
I238
I39
tp727
a(I135
I14
I146
I238
I39
tp728
a(I135
I15
I145
I238
I39
tp729
a(I135
I16
I144
I238
I39
tp730
a(I135
I17
I143
I238
I39
tp731
a(I135
I18
I142
I238
I39
tp732
a(I135
I19
I141
I238
I39
tp733
a(I135
I20
I140
I238
I39
tp734
a(I135
I21
I139
I238
I39
tp735
a(I135
I22
I138
I238
I39
tp736
a(I135
I23
I137
I238
I39
tp737
a(I135
I24
I136
I238
I39
tp738
a(I135
I25
I135
I238
I39
tp739
a(I135
I26
I134
I238
I39
tp740
a(I135
I27
I133
I238
I39
tp741
a(I135
I28
I132
I238
I39
tp742
a(I135
I29
I131
I238
I39
tp743
a(I135
I30
I130
I238
I39
tp744
a(I135
I31
I129
I238
I39
tp745
a(I248
I31
I128
I238
I39
tp746
a(I248
I30
I127
I238
I39
tp747
a(I248
I29
I126
I238
I39
tp748
a(I248
I28
I125
I238
I39
tp749
a(I248
I27
I124
I238
I39
tp750
a(I248
I26
I123
I238
I39
tp751
a(I248
I25
I122
I238
I39
tp752
a(I248
I24
I121
I238
I39
tp753
a(I248
I23
I120
I238
I39
tp754
a(I248
I22
I119
I238
I39
tp755
a(I248
I21
I118
I238
I39
tp756
a(I248
I20
I117
I238
I39
tp757
a(I248
I19
I116
I238
I39
tp758
a(I248
I18
I115
I238
I39
tp759
a(I248
I17
I114
I238
I39
tp760
a(I248
I16
I113
I238
I39
tp761
a(I248
I15
I112
I238
I39
tp762
a(I248
I14
I111
I238
I39
tp763
a(I248
I13
I110
I238
I39
tp764
a(I248
I12
I109
I238
I39
tp765
a(I248
I11
I108
I238
I39
tp766
a(I248
I10
I107
I238
I38
tp767
a(I504
I10
I43
I22
I80
tp768
a(I504
I9
I42
I21
I81
tp769
a(I504
I8
I41
I21
I81
tp770
a(I504
I7
I40
I23
I81
tp771
a(I583
I6
I25
I227
I28
tp772
a(I583
I7
I24
I239
I39
tp773
a(I583
I8
I23
I238
I39
tp774
a(I583
I9
I22
I238
I39
tp775
a(I583
I10
I21
I238
I39
tp776
a(I583
I11
I20
I238
I39
tp777
a(I583
I12
I19
I238
I39
tp778
a(I583
I13
I18
I238
I39
tp779
a(I583
I14
I17
I234
I43
tp780
a(I8
I29
I195
I239
I38
tp781
a(I8
I30
I194
I238
I39
tp782
a(I8
I31
I193
I238
I39
tp783
a(I119
I31
I192
I238
I39
tp784
a(I119
I30
I191
I238
I39
tp785
a(I119
I29
I190
I238
I39
tp786
a(I119
I28
I189
I238
I39
tp787
a(I119
I27
I188
I238
I39
tp788
a(I119
I26
I187
I238
I39
tp789
a(I119
I25
I186
I238
I39
tp790
a(I119
I24
I185
I238
I39
tp791
a(I119
I23
I184
I238
I39
tp792
a(I119
I22
I183
I238
I39
tp793
a(I119
I21
I182
I238
I39
tp794
a(I119
I20
I181
I238
I39
tp795
a(I119
I19
I180
I238
I39
tp796
a(I119
I18
I179
I238
I39
tp797
a(I119
I17
I178
I238
I39
tp798
a(I119
I16
I177
I238
I39
tp799
a(I119
I15
I176
I238
I39
tp800
a(I119
I14
I175
I238
I39
tp801
a(I119
I13
I174
I238
I39
tp802
a(I119
I12
I173
I238
I39
tp803
a(I119
I11
I172
I238
I39
tp804
a(I119
I10
I171
I238
I39
tp805
a(I119
I9
I170
I238
I39
tp806
a(I119
I8
I169
I238
I39
tp807
a(I119
I7
I168
I238
I39
tp808
a(I119
I6
I167
I238
I39
tp809
a(I119
I5
I166
I238
I39
tp810
a(I119
I4
I165
I238
I39
tp811
a(I119
I3
I164
I238
I39
tp812
a(I119
I2
I163
I238
I39
tp813
a(I119
I1
I162
I238
I39
tp814
a(I119
I0
I161
I238
I39
tp815
a(I136
I0
I160
I238
I39
tp816
a(I136
I1
I159
I238
I39
tp817
a(I136
I2
I158
I238
I39
tp818
a(I136
I3
I157
I238
I39
tp819
a(I136
I4
I156
I238
I39
tp820
a(I136
I5
I155
I238
I39
tp821
a(I136
I6
I154
I238
I39
tp822
a(I136
I7
I153
I238
I39
tp823
a(I136
I8
I152
I238
I39
tp824
a(I136
I9
I151
I238
I39
tp825
a(I136
I10
I150
I238
I39
tp826
a(I136
I11
I149
I238
I39
tp827
a(I136
I12
I148
I238
I39
tp828
a(I136
I13
I147
I238
I39
tp829
a(I136
I14
I146
I238
I39
tp830
a(I136
I15
I145
I238
I39
tp831
a(I136
I16
I144
I238
I39
tp832
a(I136
I17
I143
I238
I39
tp833
a(I136
I18
I142
I238
I39
tp834
a(I136
I19
I141
I238
I39
tp835
a(I136
I20
I140
I238
I39
tp836
a(I136
I21
I139
I238
I39
tp837
a(I136
I22
I138
I238
I39
tp838
a(I136
I23
I137
I238
I39
tp839
a(I136
I24
I136
I238
I39
tp840
a(I136
I25
I135
I238
I39
tp841
a(I136
I26
I134
I238
I39
tp842
a(I136
I27
I133
I238
I39
tp843
a(I136
I28
I132
I238
I39
tp844
a(I136
I29
I131
I238
I39
tp845
a(I136
I30
I130
I238
I39
tp846
a(I136
I31
I129
I238
I39
tp847
a(I247
I31
I128
I238
I39
tp848
a(I247
I30
I127
I238
I39
tp849
a(I247
I29
I126
I238
I39
tp850
a(I247
I28
I125
I238
I39
tp851
a(I247
I27
I124
I238
I39
tp852
a(I247
I26
I123
I238
I39
tp853
a(I247
I25
I122
I238
I39
tp854
a(I247
I24
I121
I238
I39
tp855
a(I247
I23
I120
I238
I39
tp856
a(I247
I22
I119
I238
I39
tp857
a(I247
I21
I118
I238
I39
tp858
a(I247
I20
I117
I238
I39
tp859
a(I247
I19
I116
I238
I39
tp860
a(I247
I18
I115
I238
I39
tp861
a(I247
I17
I114
I238
I39
tp862
a(I247
I16
I113
I238
I39
tp863
a(I247
I15
I112
I238
I39
tp864
a(I247
I14
I111
I238
I39
tp865
a(I247
I13
I110
I238
I39
tp866
a(I247
I12
I109
I238
I39
tp867
a(I247
I11
I108
I238
I39
tp868
a(I247
I10
I107
I238
I39
tp869
a(I247
I9
I106
I238
I39
tp870
a(I247
I8
I105
I237
I36
tp871
a(I503
I10
I43
I23
I83
tp872
a(I503
I9
I42
I21
I81
tp873
a(I503
I8
I41
I21
I81
tp874
a(I503
I7
I40
I21
I81
tp875
a(I584
I4
I27
I255
I0
tp876
a(I584
I5
I26
I238
I40
tp877
a(I584
I6
I25
I238
I39
tp878
a(I584
I7
I24
I238
I39
tp879
a(I584
I8
I23
I238
I39
tp880
a(I584
I9
I22
I238
I39
tp881
a(I584
I10
I21
I238
I39
tp882
a(I584
I11
I20
I238
I39
tp883
a(I584
I12
I19
I238
I40
tp884
a(I584
I13
I18
I255
I36
tp885
a(I9
I27
I197
I255
I64
tp886
a(I9
I28
I196
I238
I38
tp887
a(I9
I29
I195
I238
I39
tp888
a(I9
I30
I194
I238
I39
tp889
a(I9
I31
I193
I238
I39
tp890
a(I118
I31
I192
I238
I39
tp891
a(I118
I30
I191
I238
I39
tp892
a(I118
I29
I190
I238
I39
tp893
a(I118
I28
I189
I238
I39
tp894
a(I118
I27
I188
I238
I39
tp895
a(I118
I26
I187
I238
I39
tp896
a(I118
I25
I186
I238
I39
tp897
a(I118
I24
I185
I238
I39
tp898
a(I118
I23
I184
I238
I39
tp899
a(I118
I22
I183
I238
I39
tp900
a(I118
I21
I182
I238
I39
tp901
a(I118
I20
I181
I238
I39
tp902
a(I118
I19
I180
I238
I39
tp903
a(I118
I18
I179
I238
I39
tp904
a(I118
I17
I178
I238
I39
tp905
a(I118
I16
I177
I238
I39
tp906
a(I118
I15
I176
I238
I39
tp907
a(I118
I14
I175
I238
I39
tp908
a(I118
I13
I174
I238
I39
tp909
a(I118
I12
I173
I238
I39
tp910
a(I118
I11
I172
I238
I39
tp911
a(I118
I10
I171
I238
I39
tp912
a(I118
I9
I170
I237
I39
tp913
a(I118
I8
I169
I237
I39
tp914
a(I118
I7
I168
I239
I39
tp915
a(I118
I6
I167
I238
I39
tp916
a(I118
I5
I166
I239
I39
tp917
a(I118
I4
I165
I238
I40
tp918
a(I118
I3
I164
I238
I39
tp919
a(I118
I2
I163
I238
I39
tp920
a(I118
I1
I162
I238
I38
tp921
a(I118
I0
I161
I237
I38
tp922
a(I137
I0
I160
I238
I38
tp923
a(I137
I1
I159
I238
I38
tp924
a(I137
I2
I158
I238
I39
tp925
a(I137
I3
I157
I238
I39
tp926
a(I137
I4
I156
I238
I39
tp927
a(I137
I5
I155
I238
I39
tp928
a(I137
I6
I154
I238
I39
tp929
a(I137
I7
I153
I238
I39
tp930
a(I137
I8
I152
I238
I39
tp931
a(I137
I9
I151
I238
I39
tp932
a(I137
I10
I150
I238
I39
tp933
a(I137
I11
I149
I238
I39
tp934
a(I137
I12
I148
I238
I39
tp935
a(I137
I13
I147
I238
I39
tp936
a(I137
I14
I146
I238
I39
tp937
a(I137
I15
I145
I238
I39
tp938
a(I137
I16
I144
I238
I39
tp939
a(I137
I17
I143
I238
I39
tp940
a(I137
I18
I142
I238
I39
tp941
a(I137
I19
I141
I238
I39
tp942
a(I137
I20
I140
I238
I39
tp943
a(I137
I21
I139
I238
I39
tp944
a(I137
I22
I138
I238
I39
tp945
a(I137
I23
I137
I238
I39
tp946
a(I137
I24
I136
I238
I39
tp947
a(I137
I25
I135
I238
I39
tp948
a(I137
I26
I134
I238
I39
tp949
a(I137
I27
I133
I238
I39
tp950
a(I137
I28
I132
I238
I39
tp951
a(I137
I29
I131
I238
I39
tp952
a(I137
I30
I130
I238
I39
tp953
a(I137
I31
I129
I238
I39
tp954
a(I246
I31
I128
I238
I39
tp955
a(I246
I30
I127
I238
I39
tp956
a(I246
I29
I126
I238
I39
tp957
a(I246
I28
I125
I238
I39
tp958
a(I246
I27
I124
I238
I39
tp959
a(I246
I26
I123
I238
I39
tp960
a(I246
I25
I122
I238
I39
tp961
a(I246
I24
I121
I238
I39
tp962
a(I246
I23
I120
I238
I39
tp963
a(I246
I22
I119
I238
I39
tp964
a(I246
I21
I118
I238
I39
tp965
a(I246
I20
I117
I238
I39
tp966
a(I246
I19
I116
I238
I39
tp967
a(I246
I18
I115
I238
I39
tp968
a(I246
I17
I114
I238
I39
tp969
a(I246
I16
I113
I238
I39
tp970
a(I246
I15
I112
I238
I39
tp971
a(I246
I14
I111
I238
I39
tp972
a(I246
I13
I110
I238
I39
tp973
a(I246
I12
I109
I238
I39
tp974
a(I246
I11
I108
I238
I39
tp975
a(I246
I10
I107
I238
I39
tp976
a(I246
I9
I106
I238
I39
tp977
a(I246
I8
I105
I238
I39
tp978
a(I246
I7
I104
I237
I38
tp979
a(I502
I10
I43
I23
I83
tp980
a(I502
I9
I42
I21
I81
tp981
a(I502
I8
I41
I21
I81
tp982
a(I502
I7
I40
I20
I81
tp983
a(I585
I2
I29
I255
I0
tp984
a(I585
I3
I28
I237
I40
tp985
a(I585
I4
I27
I238
I40
tp986
a(I585
I5
I26
I238
I39
tp987
a(I585
I6
I25
I238
I39
tp988
a(I585
I7
I24
I238
I39
tp989
a(I585
I8
I23
I238
I39
tp990
a(I585
I9
I22
I238
I39
tp991
a(I585
I10
I21
I238
I39
tp992
a(I585
I11
I20
I237
I38
tp993
a(I10
I26
I198
I242
I40
tp994
a(I10
I27
I197
I238
I39
tp995
a(I10
I28
I196
I238
I39
tp996
a(I10
I29
I195
I238
I39
tp997
a(I10
I30
I194
I238
I39
tp998
a(I10
I31
I193
I238
I39
tp999
a(I117
I31
I192
I238
I39
tp1000
a(I117
I30
I191
I238
I39
tp1001
a(I117
I29
I190
I238
I39
tp1002
a(I117
I28
I189
I238
I39
tp1003
a(I117
I27
I188
I238
I39
tp1004
a(I117
I26
I187
I238
I39
tp1005
a(I117
I25
I186
I238
I39
tp1006
a(I117
I24
I185
I238
I39
tp1007
a(I117
I23
I184
I238
I39
tp1008
a(I117
I22
I183
I238
I39
tp1009
a(I117
I21
I182
I238
I39
tp1010
a(I117
I20
I181
I238
I39
tp1011
a(I117
I19
I180
I238
I39
tp1012
a(I117
I18
I179
I238
I39
tp1013
a(I117
I17
I178
I238
I40
tp1014
a(I117
I16
I177
I238
I40
tp1015
a(I117
I15
I176
I239
I39
tp1016
a(I117
I14
I175
I240
I39
tp1017
a(I117
I13
I174
I255
I0
tp1018
a(I138
I2
I158
I255
I0
tp1019
a(I138
I3
I157
I233
I44
tp1020
a(I138
I4
I156
I237
I40
tp1021
a(I138
I5
I155
I237
I39
tp1022
a(I138
I6
I154
I238
I38
tp1023
a(I138
I7
I153
I238
I39
tp1024
a(I138
I8
I152
I238
I39
tp1025
a(I138
I9
I151
I238
I39
tp1026
a(I138
I10
I150
I238
I39
tp1027
a(I138
I11
I149
I238
I39
tp1028
a(I138
I12
I148
I238
I39
tp1029
a(I138
I13
I147
I238
I39
tp1030
a(I138
I14
I146
I238
I39
tp1031
a(I138
I15
I145
I238
I39
tp1032
a(I138
I16
I144
I238
I39
tp1033
a(I138
I17
I143
I238
I39
tp1034
a(I138
I18
I142
I238
I39
tp1035
a(I138
I19
I141
I238
I39
tp1036
a(I138
I20
I140
I238
I39
tp1037
a(I138
I21
I139
I238
I39
tp1038
a(I138
I22
I138
I238
I39
tp1039
a(I138
I23
I137
I238
I39
tp1040
a(I138
I24
I136
I238
I39
tp1041
a(I138
I25
I135
I238
I39
tp1042
a(I138
I26
I134
I238
I39
tp1043
a(I138
I27
I133
I238
I39
tp1044
a(I138
I28
I132
I238
I39
tp1045
a(I138
I29
I131
I238
I39
tp1046
a(I138
I30
I130
I238
I39
tp1047
a(I138
I31
I129
I238
I39
tp1048
a(I245
I31
I128
I238
I39
tp1049
a(I245
I30
I127
I238
I39
tp1050
a(I245
I29
I126
I238
I39
tp1051
a(I245
I28
I125
I238
I39
tp1052
a(I245
I27
I124
I238
I39
tp1053
a(I245
I26
I123
I238
I39
tp1054
a(I245
I25
I122
I238
I39
tp1055
a(I245
I24
I121
I238
I39
tp1056
a(I245
I23
I120
I238
I39
tp1057
a(I245
I22
I119
I238
I39
tp1058
a(I245
I21
I118
I238
I39
tp1059
a(I245
I20
I117
I238
I39
tp1060
a(I245
I19
I116
I238
I39
tp1061
a(I245
I18
I115
I238
I39
tp1062
a(I245
I17
I114
I238
I39
tp1063
a(I245
I16
I113
I238
I39
tp1064
a(I245
I15
I112
I238
I39
tp1065
a(I245
I14
I111
I238
I39
tp1066
a(I245
I13
I110
I238
I39
tp1067
a(I245
I12
I109
I238
I39
tp1068
a(I245
I11
I108
I238
I39
tp1069
a(I245
I10
I107
I238
I39
tp1070
a(I245
I9
I106
I238
I39
tp1071
a(I245
I8
I105
I238
I39
tp1072
a(I245
I7
I104
I238
I39
tp1073
a(I245
I6
I103
I238
I38
tp1074
a(I245
I5
I102
I240
I38
tp1075
a(I501
I10
I43
I23
I83
tp1076
a(I501
I9
I42
I21
I81
tp1077
a(I501
I8
I41
I21
I81
tp1078
a(I501
I7
I40
I21
I81
tp1079
a(I586
I0
I31
I255
I0
tp1080
a(I586
I1
I30
I238
I39
tp1081
a(I586
I2
I29
I238
I39
tp1082
a(I586
I3
I28
I238
I39
tp1083
a(I586
I4
I27
I238
I39
tp1084
a(I586
I5
I26
I238
I39
tp1085
a(I586
I6
I25
I238
I39
tp1086
a(I586
I7
I24
I238
I39
tp1087
a(I586
I8
I23
I238
I39
tp1088
a(I586
I9
I22
I238
I39
tp1089
a(I586
I10
I21
I237
I39
tp1090
a(I11
I25
I199
I240
I38
tp1091
a(I11
I26
I198
I239
I39
tp1092
a(I11
I27
I197
I238
I39
tp1093
a(I11
I28
I196
I238
I39
tp1094
a(I11
I29
I195
I238
I39
tp1095
a(I11
I30
I194
I238
I39
tp1096
a(I11
I31
I193
I238
I39
tp1097
a(I116
I31
I192
I238
I39
tp1098
a(I116
I30
I191
I238
I39
tp1099
a(I116
I29
I190
I238
I39
tp1100
a(I116
I28
I189
I238
I39
tp1101
a(I116
I27
I188
I238
I39
tp1102
a(I116
I26
I187
I238
I39
tp1103
a(I116
I25
I186
I238
I39
tp1104
a(I116
I24
I185
I238
I39
tp1105
a(I116
I23
I184
I238
I39
tp1106
a(I116
I22
I183
I238
I39
tp1107
a(I116
I21
I182
I238
I40
tp1108
a(I116
I20
I181
I238
I39
tp1109
a(I116
I19
I180
I238
I43
tp1110
a(I139
I8
I152
I234
I43
tp1111
a(I139
I9
I151
I239
I37
tp1112
a(I139
I10
I150
I239
I39
tp1113
a(I139
I11
I149
I239
I39
tp1114
a(I139
I12
I148
I238
I39
tp1115
a(I139
I13
I147
I238
I39
tp1116
a(I139
I14
I146
I238
I39
tp1117
a(I139
I15
I145
I238
I39
tp1118
a(I139
I16
I144
I238
I39
tp1119
a(I139
I17
I143
I238
I39
tp1120
a(I139
I18
I142
I238
I39
tp1121
a(I139
I19
I141
I238
I39
tp1122
a(I139
I20
I140
I238
I39
tp1123
a(I139
I21
I139
I238
I39
tp1124
a(I139
I22
I138
I238
I39
tp1125
a(I139
I23
I137
I238
I39
tp1126
a(I139
I24
I136
I238
I39
tp1127
a(I139
I25
I135
I238
I39
tp1128
a(I139
I26
I134
I238
I39
tp1129
a(I139
I27
I133
I238
I39
tp1130
a(I139
I28
I132
I238
I39
tp1131
a(I139
I29
I131
I238
I39
tp1132
a(I139
I30
I130
I238
I39
tp1133
a(I139
I31
I129
I238
I39
tp1134
a(I244
I31
I128
I238
I39
tp1135
a(I244
I30
I127
I238
I39
tp1136
a(I244
I29
I126
I238
I39
tp1137
a(I244
I28
I125
I238
I39
tp1138
a(I244
I27
I124
I238
I39
tp1139
a(I244
I26
I123
I238
I39
tp1140
a(I244
I25
I122
I238
I39
tp1141
a(I244
I24
I121
I238
I39
tp1142
a(I244
I23
I120
I238
I39
tp1143
a(I244
I22
I119
I238
I39
tp1144
a(I244
I21
I118
I238
I39
tp1145
a(I244
I20
I117
I238
I39
tp1146
a(I244
I19
I116
I238
I39
tp1147
a(I244
I18
I115
I238
I39
tp1148
a(I244
I17
I114
I238
I39
tp1149
a(I244
I16
I113
I238
I39
tp1150
a(I244
I15
I112
I238
I39
tp1151
a(I244
I14
I111
I238
I39
tp1152
a(I244
I13
I110
I238
I39
tp1153
a(I244
I12
I109
I238
I39
tp1154
a(I244
I11
I108
I238
I39
tp1155
a(I244
I10
I107
I238
I39
tp1156
a(I244
I9
I106
I238
I39
tp1157
a(I244
I8
I105
I238
I39
tp1158
a(I244
I7
I104
I238
I39
tp1159
a(I244
I6
I103
I238
I39
tp1160
a(I244
I5
I102
I238
I39
tp1161
a(I244
I4
I101
I237
I39
tp1162
a(I244
I3
I100
I243
I36
tp1163
a(I500
I10
I43
I20
I82
tp1164
a(I500
I9
I42
I21
I81
tp1165
a(I500
I8
I41
I21
I81
tp1166
a(I500
I7
I40
I20
I82
tp1167
a(I500
I0
I33
I230
I51
tp1168
a(I587
I0
I31
I238
I38
tp1169
a(I587
I1
I30
I238
I39
tp1170
a(I587
I2
I29
I238
I39
tp1171
a(I587
I3
I28
I238
I39
tp1172
a(I587
I4
I27
I238
I39
tp1173
a(I587
I5
I26
I238
I39
tp1174
a(I587
I6
I25
I238
I39
tp1175
a(I587
I7
I24
I238
I39
tp1176
a(I587
I8
I23
I239
I39
tp1177
a(I587
I9
I22
I237
I42
tp1178
a(I12
I24
I200
I236
I38
tp1179
a(I12
I25
I199
I237
I39
tp1180
a(I12
I26
I198
I238
I39
tp1181
a(I12
I27
I197
I238
I39
tp1182
a(I12
I28
I196
I238
I39
tp1183
a(I12
I29
I195
I238
I39
tp1184
a(I12
I30
I194
I238
I39
tp1185
a(I12
I31
I193
I238
I39
tp1186
a(I115
I31
I192
I238
I39
tp1187
a(I115
I30
I191
I238
I39
tp1188
a(I115
I29
I190
I238
I39
tp1189
a(I115
I28
I189
I238
I39
tp1190
a(I115
I27
I188
I238
I39
tp1191
a(I115
I26
I187
I238
I39
tp1192
a(I115
I25
I186
I238
I39
tp1193
a(I115
I24
I185
I237
I40
tp1194
a(I115
I23
I184
I239
I37
tp1195
a(I115
I22
I183
I255
I0
tp1196
a(I140
I12
I148
I234
I43
tp1197
a(I140
I13
I147
I237
I39
tp1198
a(I140
I14
I146
I237
I40
tp1199
a(I140
I15
I145
I238
I39
tp1200
a(I140
I16
I144
I238
I39
tp1201
a(I140
I17
I143
I238
I39
tp1202
a(I140
I18
I142
I238
I39
tp1203
a(I140
I19
I141
I238
I39
tp1204
a(I140
I20
I140
I238
I39
tp1205
a(I140
I21
I139
I238
I39
tp1206
a(I140
I22
I138
I238
I39
tp1207
a(I140
I23
I137
I238
I39
tp1208
a(I140
I24
I136
I238
I39
tp1209
a(I140
I25
I135
I238
I39
tp1210
a(I140
I26
I134
I238
I39
tp1211
a(I140
I27
I133
I238
I39
tp1212
a(I140
I28
I132
I238
I39
tp1213
a(I140
I29
I131
I238
I39
tp1214
a(I140
I30
I130
I238
I39
tp1215
a(I140
I31
I129
I238
I39
tp1216
a(I243
I31
I128
I238
I39
tp1217
a(I243
I30
I127
I238
I39
tp1218
a(I243
I29
I126
I238
I39
tp1219
a(I243
I28
I125
I238
I39
tp1220
a(I243
I27
I124
I238
I39
tp1221
a(I243
I26
I123
I238
I39
tp1222
a(I243
I25
I122
I238
I39
tp1223
a(I243
I24
I121
I238
I39
tp1224
a(I243
I23
I120
I238
I39
tp1225
a(I243
I22
I119
I238
I39
tp1226
a(I243
I21
I118
I238
I39
tp1227
a(I243
I20
I117
I238
I39
tp1228
a(I243
I19
I116
I238
I39
tp1229
a(I243
I18
I115
I238
I39
tp1230
a(I243
I17
I114
I238
I39
tp1231
a(I243
I16
I113
I238
I39
tp1232
a(I243
I15
I112
I238
I39
tp1233
a(I243
I14
I111
I238
I39
tp1234
a(I243
I13
I110
I238
I39
tp1235
a(I243
I12
I109
I238
I39
tp1236
a(I243
I11
I108
I238
I39
tp1237
a(I243
I10
I107
I238
I39
tp1238
a(I243
I9
I106
I238
I39
tp1239
a(I243
I8
I105
I238
I39
tp1240
a(I243
I7
I104
I238
I39
tp1241
a(I243
I6
I103
I238
I39
tp1242
a(I243
I5
I102
I238
I39
tp1243
a(I243
I4
I101
I238
I39
tp1244
a(I243
I3
I100
I238
I39
tp1245
a(I243
I2
I99
I238
I38
tp1246
a(I243
I1
I98
I239
I32
tp1247
a(I499
I10
I43
I15
I75
tp1248
a(I499
I9
I42
I21
I81
tp1249
a(I499
I8
I41
I21
I81
tp1250
a(I499
I7
I40
I21
I80
tp1251
a(I499
I2
I35
I238
I43
tp1252
a(I499
I1
I34
I238
I39
tp1253
a(I499
I0
I33
I238
I39
tp1254
a(I588
I0
I31
I238
I39
tp1255
a(I588
I1
I30
I238
I39
tp1256
a(I588
I2
I29
I238
I39
tp1257
a(I588
I3
I28
I238
I39
tp1258
a(I588
I4
I27
I238
I39
tp1259
a(I588
I5
I26
I238
I39
tp1260
a(I588
I6
I25
I238
I39
tp1261
a(I588
I7
I24
I238
I39
tp1262
a(I588
I8
I23
I239
I32
tp1263
a(I13
I23
I201
I237
I39
tp1264
a(I13
I24
I200
I238
I39
tp1265
a(I13
I25
I199
I238
I39
tp1266
a(I13
I26
I198
I238
I39
tp1267
a(I13
I27
I197
I238
I39
tp1268
a(I13
I28
I196
I238
I39
tp1269
a(I13
I29
I195
I238
I39
tp1270
a(I13
I30
I194
I238
I39
tp1271
a(I13
I31
I193
I238
I39
tp1272
a(I114
I31
I192
I238
I39
tp1273
a(I114
I30
I191
I238
I39
tp1274
a(I114
I29
I190
I238
I39
tp1275
a(I114
I28
I189
I239
I38
tp1276
a(I114
I27
I188
I238
I39
tp1277
a(I114
I26
I187
I237
I36
tp1278
a(I141
I15
I145
I235
I39
tp1279
a(I141
I16
I144
I237
I38
tp1280
a(I141
I17
I143
I238
I39
tp1281
a(I141
I18
I142
I238
I39
tp1282
a(I141
I19
I141
I238
I39
tp1283
a(I141
I20
I140
I238
I39
tp1284
a(I141
I21
I139
I238
I39
tp1285
a(I141
I22
I138
I238
I39
tp1286
a(I141
I23
I137
I238
I39
tp1287
a(I141
I24
I136
I238
I39
tp1288
a(I141
I25
I135
I238
I39
tp1289
a(I141
I26
I134
I238
I39
tp1290
a(I141
I27
I133
I238
I39
tp1291
a(I141
I28
I132
I238
I39
tp1292
a(I141
I29
I131
I238
I39
tp1293
a(I141
I30
I130
I238
I39
tp1294
a(I141
I31
I129
I238
I39
tp1295
a(I242
I31
I128
I238
I39
tp1296
a(I242
I30
I127
I238
I39
tp1297
a(I242
I29
I126
I238
I39
tp1298
a(I242
I28
I125
I238
I39
tp1299
a(I242
I27
I124
I238
I39
tp1300
a(I242
I26
I123
I238
I39
tp1301
a(I242
I25
I122
I238
I39
tp1302
a(I242
I24
I121
I238
I39
tp1303
a(I242
I23
I120
I238
I39
tp1304
a(I242
I22
I119
I238
I39
tp1305
a(I242
I21
I118
I238
I39
tp1306
a(I242
I20
I117
I238
I39
tp1307
a(I242
I19
I116
I238
I39
tp1308
a(I242
I18
I115
I238
I39
tp1309
a(I242
I17
I114
I238
I39
tp1310
a(I242
I16
I113
I238
I39
tp1311
a(I242
I15
I112
I238
I39
tp1312
a(I242
I14
I111
I238
I39
tp1313
a(I242
I13
I110
I238
I39
tp1314
a(I242
I12
I109
I238
I39
tp1315
a(I242
I11
I108
I238
I39
tp1316
a(I242
I10
I107
I238
I39
tp1317
a(I242
I9
I106
I238
I39
tp1318
a(I242
I8
I105
I238
I39
tp1319
a(I242
I7
I104
I238
I39
tp1320
a(I242
I6
I103
I238
I39
tp1321
a(I242
I5
I102
I238
I39
tp1322
a(I242
I4
I101
I238
I39
tp1323
a(I242
I3
I100
I238
I39
tp1324
a(I242
I2
I99
I238
I39
tp1325
a(I242
I1
I98
I238
I39
tp1326
a(I242
I0
I97
I239
I39
tp1327
a(I269
I0
I96
I242
I40
tp1328
a(I498
I10
I43
I15
I75
tp1329
a(I498
I9
I42
I21
I81
tp1330
a(I498
I8
I41
I21
I81
tp1331
a(I498
I7
I40
I21
I81
tp1332
a(I498
I5
I38
I255
I64
tp1333
a(I498
I4
I37
I238
I40
tp1334
a(I498
I3
I36
I238
I39
tp1335
a(I498
I2
I35
I238
I39
tp1336
a(I498
I1
I34
I238
I39
tp1337
a(I498
I0
I33
I238
I39
tp1338
a(I589
I0
I31
I238
I39
tp1339
a(I589
I1
I30
I238
I39
tp1340
a(I589
I2
I29
I238
I39
tp1341
a(I589
I3
I28
I238
I39
tp1342
a(I589
I4
I27
I238
I39
tp1343
a(I589
I5
I26
I238
I39
tp1344
a(I589
I6
I25
I238
I39
tp1345
a(I589
I7
I24
I255
I0
tp1346
a(I14
I22
I202
I239
I40
tp1347
a(I14
I23
I201
I238
I39
tp1348
a(I14
I24
I200
I238
I39
tp1349
a(I14
I25
I199
I238
I39
tp1350
a(I14
I26
I198
I238
I39
tp1351
a(I14
I27
I197
I238
I39
tp1352
a(I14
I28
I196
I238
I39
tp1353
a(I14
I29
I195
I238
I39
tp1354
a(I14
I30
I194
I238
I39
tp1355
a(I14
I31
I193
I238
I39
tp1356
a(I113
I31
I192
I238
I39
tp1357
a(I113
I30
I191
I238
I39
tp1358
a(I113
I29
I190
I239
I39
tp1359
a(I113
I28
I189
I255
I51
tp1360
a(I142
I18
I142
I237
I36
tp1361
a(I142
I19
I141
I238
I39
tp1362
a(I142
I20
I140
I237
I39
tp1363
a(I142
I21
I139
I238
I39
tp1364
a(I142
I22
I138
I238
I39
tp1365
a(I142
I23
I137
I238
I39
tp1366
a(I142
I24
I136
I238
I39
tp1367
a(I142
I25
I135
I238
I39
tp1368
a(I142
I26
I134
I238
I39
tp1369
a(I142
I27
I133
I238
I39
tp1370
a(I142
I28
I132
I238
I39
tp1371
a(I142
I29
I131
I238
I39
tp1372
a(I142
I30
I130
I238
I39
tp1373
a(I142
I31
I129
I238
I39
tp1374
a(I241
I31
I128
I238
I39
tp1375
a(I241
I30
I127
I238
I39
tp1376
a(I241
I29
I126
I238
I39
tp1377
a(I241
I28
I125
I238
I39
tp1378
a(I241
I27
I124
I238
I39
tp1379
a(I241
I26
I123
I238
I39
tp1380
a(I241
I25
I122
I238
I39
tp1381
a(I241
I24
I121
I238
I39
tp1382
a(I241
I23
I120
I238
I39
tp1383
a(I241
I22
I119
I238
I39
tp1384
a(I241
I21
I118
I238
I39
tp1385
a(I241
I20
I117
I238
I39
tp1386
a(I241
I19
I116
I238
I39
tp1387
a(I241
I18
I115
I238
I39
tp1388
a(I241
I17
I114
I238
I39
tp1389
a(I241
I16
I113
I238
I39
tp1390
a(I241
I15
I112
I238
I39
tp1391
a(I241
I14
I111
I238
I39
tp1392
a(I241
I13
I110
I238
I39
tp1393
a(I241
I12
I109
I238
I39
tp1394
a(I241
I11
I108
I238
I39
tp1395
a(I241
I10
I107
I238
I39
tp1396
a(I241
I9
I106
I238
I39
tp1397
a(I241
I8
I105
I238
I39
tp1398
a(I241
I7
I104
I238
I39
tp1399
a(I241
I6
I103
I238
I39
tp1400
a(I241
I5
I102
I238
I39
tp1401
a(I241
I4
I101
I238
I39
tp1402
a(I241
I3
I100
I238
I39
tp1403
a(I241
I2
I99
I238
I39
tp1404
a(I241
I1
I98
I238
I39
tp1405
a(I241
I0
I97
I238
I39
tp1406
a(I270
I0
I96
I238
I39
tp1407
a(I270
I1
I95
I237
I39
tp1408
a(I270
I2
I94
I240
I40
tp1409
a(I497
I10
I43
I15
I75
tp1410
a(I497
I9
I42
I21
I81
tp1411
a(I497
I8
I41
I21
I81
tp1412
a(I497
I7
I40
I30
I79
tp1413
a(I497
I6
I39
I238
I40
tp1414
a(I497
I5
I38
I238
I39
tp1415
a(I497
I4
I37
I238
I39
tp1416
a(I497
I3
I36
I238
I39
tp1417
a(I497
I2
I35
I238
I39
tp1418
a(I497
I1
I34
I238
I39
tp1419
a(I497
I0
I33
I238
I39
tp1420
a(I590
I0
I31
I238
I39
tp1421
a(I590
I1
I30
I238
I39
tp1422
a(I590
I2
I29
I238
I39
tp1423
a(I590
I3
I28
I238
I39
tp1424
a(I590
I4
I27
I239
I38
tp1425
a(I590
I5
I26
I240
I38
tp1426
a(I15
I21
I203
I239
I39
tp1427
a(I15
I22
I202
I238
I39
tp1428
a(I15
I23
I201
I238
I39
tp1429
a(I15
I24
I200
I238
I39
tp1430
a(I15
I25
I199
I238
I39
tp1431
a(I15
I26
I198
I238
I39
tp1432
a(I15
I27
I197
I238
I39
tp1433
a(I15
I28
I196
I238
I39
tp1434
a(I15
I29
I195
I238
I39
tp1435
a(I15
I30
I194
I238
I39
tp1436
a(I15
I31
I193
I237
I39
tp1437
a(I112
I31
I192
I239
I38
tp1438
a(I143
I20
I140
I223
I32
tp1439
a(I143
I21
I139
I238
I39
tp1440
a(I143
I22
I138
I238
I39
tp1441
a(I143
I23
I137
I238
I39
tp1442
a(I143
I24
I136
I238
I39
tp1443
a(I143
I25
I135
I238
I39
tp1444
a(I143
I26
I134
I238
I39
tp1445
a(I143
I27
I133
I238
I39
tp1446
a(I143
I28
I132
I238
I39
tp1447
a(I143
I29
I131
I238
I39
tp1448
a(I143
I30
I130
I238
I39
tp1449
a(I143
I31
I129
I238
I39
tp1450
a(I240
I31
I128
I238
I39
tp1451
a(I240
I30
I127
I238
I39
tp1452
a(I240
I29
I126
I238
I39
tp1453
a(I240
I28
I125
I238
I39
tp1454
a(I240
I27
I124
I238
I39
tp1455
a(I240
I26
I123
I238
I39
tp1456
a(I240
I25
I122
I238
I39
tp1457
a(I240
I24
I121
I238
I39
tp1458
a(I240
I23
I120
I238
I39
tp1459
a(I240
I22
I119
I238
I39
tp1460
a(I240
I21
I118
I238
I39
tp1461
a(I240
I20
I117
I238
I39
tp1462
a(I240
I19
I116
I238
I39
tp1463
a(I240
I18
I115
I238
I39
tp1464
a(I240
I17
I114
I238
I39
tp1465
a(I240
I16
I113
I238
I39
tp1466
a(I240
I15
I112
I238
I39
tp1467
a(I240
I14
I111
I238
I39
tp1468
a(I240
I13
I110
I238
I39
tp1469
a(I240
I12
I109
I238
I39
tp1470
a(I240
I11
I108
I238
I39
tp1471
a(I240
I10
I107
I238
I39
tp1472
a(I240
I9
I106
I238
I39
tp1473
a(I240
I8
I105
I238
I39
tp1474
a(I240
I7
I104
I238
I39
tp1475
a(I240
I6
I103
I238
I39
tp1476
a(I240
I5
I102
I238
I39
tp1477
a(I240
I4
I101
I238
I39
tp1478
a(I240
I3
I100
I238
I39
tp1479
a(I240
I2
I99
I238
I39
tp1480
a(I240
I1
I98
I238
I39
tp1481
a(I240
I0
I97
I238
I39
tp1482
a(I271
I0
I96
I238
I39
tp1483
a(I271
I1
I95
I238
I39
tp1484
a(I271
I2
I94
I238
I39
tp1485
a(I271
I3
I93
I238
I39
tp1486
a(I271
I4
I92
I238
I39
tp1487
a(I271
I5
I91
I230
I51
tp1488
a(I496
I10
I43
I163
I51
tp1489
a(I496
I9
I42
I21
I81
tp1490
a(I496
I8
I41
I21
I81
tp1491
a(I496
I7
I40
I49
I76
tp1492
a(I496
I6
I39
I238
I39
tp1493
a(I496
I5
I38
I238
I39
tp1494
a(I496
I4
I37
I238
I39
tp1495
a(I496
I3
I36
I238
I39
tp1496
a(I496
I2
I35
I238
I39
tp1497
a(I496
I1
I34
I238
I39
tp1498
a(I496
I0
I33
I238
I39
tp1499
a(I591
I0
I31
I238
I39
tp1500
a(I591
I1
I30
I238
I39
tp1501
a(I591
I2
I29
I238
I39
tp1502
a(I591
I3
I28
I238
I39
tp1503
a(I591
I4
I27
I234
I43
tp1504
a(I16
I20
I204
I238
I40
tp1505
a(I16
I21
I203
I238
I39
tp1506
a(I16
I22
I202
I238
I39
tp1507
a(I16
I23
I201
I238
I39
tp1508
a(I16
I24
I200
I238
I39
tp1509
a(I16
I25
I199
I238
I39
tp1510
a(I16
I26
I198
I238
I39
tp1511
a(I16
I27
I197
I238
I39
tp1512
a(I16
I28
I196
I238
I39
tp1513
a(I16
I29
I195
I238
I38
tp1514
a(I16
I30
I194
I236
I38
tp1515
a(I144
I22
I138
I255
I64
tp1516
a(I144
I23
I137
I238
I39
tp1517
a(I144
I24
I136
I238
I39
tp1518
a(I144
I25
I135
I238
I39
tp1519
a(I144
I26
I134
I238
I39
tp1520
a(I144
I27
I133
I238
I39
tp1521
a(I144
I28
I132
I238
I39
tp1522
a(I144
I29
I131
I238
I39
tp1523
a(I144
I30
I130
I238
I39
tp1524
a(I144
I31
I129
I238
I39
tp1525
a(I239
I31
I128
I238
I39
tp1526
a(I239
I30
I127
I238
I39
tp1527
a(I239
I29
I126
I238
I39
tp1528
a(I239
I28
I125
I238
I39
tp1529
a(I239
I27
I124
I238
I39
tp1530
a(I239
I26
I123
I238
I39
tp1531
a(I239
I25
I122
I238
I39
tp1532
a(I239
I24
I121
I238
I39
tp1533
a(I239
I23
I120
I238
I39
tp1534
a(I239
I22
I119
I238
I39
tp1535
a(I239
I21
I118
I238
I39
tp1536
a(I239
I20
I117
I238
I39
tp1537
a(I239
I19
I116
I238
I39
tp1538
a(I239
I18
I115
I238
I39
tp1539
a(I239
I17
I114
I238
I39
tp1540
a(I239
I16
I113
I238
I39
tp1541
a(I239
I15
I112
I238
I39
tp1542
a(I239
I14
I111
I238
I39
tp1543
a(I239
I13
I110
I238
I39
tp1544
a(I239
I12
I109
I238
I39
tp1545
a(I239
I11
I108
I238
I39
tp1546
a(I239
I10
I107
I238
I39
tp1547
a(I239
I9
I106
I238
I39
tp1548
a(I239
I8
I105
I238
I39
tp1549
a(I239
I7
I104
I238
I39
tp1550
a(I239
I6
I103
I238
I39
tp1551
a(I239
I5
I102
I238
I39
tp1552
a(I239
I4
I101
I238
I39
tp1553
a(I239
I3
I100
I238
I39
tp1554
a(I239
I2
I99
I238
I39
tp1555
a(I239
I1
I98
I238
I39
tp1556
a(I239
I0
I97
I238
I39
tp1557
a(I272
I0
I96
I238
I39
tp1558
a(I272
I1
I95
I238
I39
tp1559
a(I272
I2
I94
I238
I39
tp1560
a(I272
I3
I93
I238
I39
tp1561
a(I272
I4
I92
I238
I39
tp1562
a(I272
I5
I91
I238
I39
tp1563
a(I272
I6
I90
I239
I39
tp1564
a(I272
I7
I89
I237
I39
tp1565
a(I272
I8
I88
I230
I51
tp1566
a(I495
I14
I47
I255
I0
tp1567
a(I495
I13
I46
I238
I38
tp1568
a(I495
I12
I45
I238
I38
tp1569
a(I495
I11
I44
I238
I39
tp1570
a(I495
I10
I43
I222
I42
tp1571
a(I495
I9
I42
I21
I81
tp1572
a(I495
I8
I41
I21
I81
tp1573
a(I495
I7
I40
I36
I79
tp1574
a(I495
I6
I39
I238
I39
tp1575
a(I495
I5
I38
I238
I39
tp1576
a(I495
I4
I37
I238
I39
tp1577
a(I495
I3
I36
I238
I39
tp1578
a(I495
I2
I35
I238
I39
tp1579
a(I495
I1
I34
I238
I39
tp1580
a(I495
I0
I33
I238
I39
tp1581
a(I592
I0
I31
I238
I39
tp1582
a(I592
I1
I30
I238
I39
tp1583
a(I592
I2
I29
I238
I38
tp1584
a(I592
I3
I28
I255
I0
tp1585
a(I17
I19
I205
I238
I39
tp1586
a(I17
I20
I204
I238
I39
tp1587
a(I17
I21
I203
I238
I39
tp1588
a(I17
I22
I202
I238
I39
tp1589
a(I17
I23
I201
I238
I39
tp1590
a(I17
I24
I200
I238
I39
tp1591
a(I17
I25
I199
I238
I39
tp1592
a(I17
I26
I198
I238
I39
tp1593
a(I17
I27
I197
I238
I39
tp1594
a(I17
I28
I196
I239
I40
tp1595
a(I145
I24
I136
I255
I0
tp1596
a(I145
I25
I135
I239
I39
tp1597
a(I145
I26
I134
I238
I38
tp1598
a(I145
I27
I133
I238
I39
tp1599
a(I145
I28
I132
I238
I39
tp1600
a(I145
I29
I131
I238
I39
tp1601
a(I145
I30
I130
I238
I39
tp1602
a(I145
I31
I129
I238
I39
tp1603
a(I238
I31
I128
I238
I39
tp1604
a(I238
I30
I127
I238
I39
tp1605
a(I238
I29
I126
I238
I39
tp1606
a(I238
I28
I125
I238
I39
tp1607
a(I238
I27
I124
I238
I39
tp1608
a(I238
I26
I123
I238
I39
tp1609
a(I238
I25
I122
I238
I39
tp1610
a(I238
I24
I121
I238
I39
tp1611
a(I238
I23
I120
I238
I39
tp1612
a(I238
I22
I119
I238
I39
tp1613
a(I238
I21
I118
I238
I39
tp1614
a(I238
I20
I117
I238
I39
tp1615
a(I238
I19
I116
I238
I39
tp1616
a(I238
I18
I115
I238
I39
tp1617
a(I238
I17
I114
I238
I39
tp1618
a(I238
I16
I113
I238
I39
tp1619
a(I238
I15
I112
I238
I39
tp1620
a(I238
I14
I111
I238
I39
tp1621
a(I238
I13
I110
I238
I39
tp1622
a(I238
I12
I109
I238
I39
tp1623
a(I238
I11
I108
I238
I39
tp1624
a(I238
I10
I107
I238
I39
tp1625
a(I238
I9
I106
I238
I39
tp1626
a(I238
I8
I105
I238
I39
tp1627
a(I238
I7
I104
I238
I39
tp1628
a(I238
I6
I103
I238
I39
tp1629
a(I238
I5
I102
I238
I39
tp1630
a(I238
I4
I101
I238
I39
tp1631
a(I238
I3
I100
I238
I39
tp1632
a(I238
I2
I99
I238
I39
tp1633
a(I238
I1
I98
I238
I39
tp1634
a(I238
I0
I97
I238
I39
tp1635
a(I273
I0
I96
I238
I39
tp1636
a(I273
I1
I95
I238
I39
tp1637
a(I273
I2
I94
I238
I39
tp1638
a(I273
I3
I93
I238
I39
tp1639
a(I273
I4
I92
I238
I39
tp1640
a(I273
I5
I91
I238
I39
tp1641
a(I273
I6
I90
I238
I39
tp1642
a(I273
I7
I89
I238
I39
tp1643
a(I273
I8
I88
I238
I39
tp1644
a(I273
I9
I87
I239
I39
tp1645
a(I273
I10
I86
I238
I40
tp1646
a(I273
I11
I85
I235
I39
tp1647
a(I494
I18
I51
I255
I0
tp1648
a(I494
I17
I50
I239
I37
tp1649
a(I494
I16
I49
I238
I38
tp1650
a(I494
I15
I48
I239
I39
tp1651
a(I494
I14
I47
I238
I39
tp1652
a(I494
I13
I46
I238
I39
tp1653
a(I494
I12
I45
I238
I39
tp1654
a(I494
I11
I44
I238
I39
tp1655
a(I494
I10
I43
I209
I45
tp1656
a(I494
I9
I42
I21
I81
tp1657
a(I494
I8
I41
I21
I81
tp1658
a(I494
I7
I40
I27
I80
tp1659
a(I494
I6
I39
I238
I39
tp1660
a(I494
I5
I38
I238
I39
tp1661
a(I494
I4
I37
I238
I39
tp1662
a(I494
I3
I36
I238
I39
tp1663
a(I494
I2
I35
I238
I39
tp1664
a(I494
I1
I34
I238
I39
tp1665
a(I494
I0
I33
I238
I39
tp1666
a(I593
I0
I31
I238
I39
tp1667
a(I593
I1
I30
I238
I38
tp1668
a(I18
I18
I206
I237
I39
tp1669
a(I18
I19
I205
I238
I39
tp1670
a(I18
I20
I204
I238
I39
tp1671
a(I18
I21
I203
I238
I39
tp1672
a(I18
I22
I202
I238
I39
tp1673
a(I18
I23
I201
I238
I39
tp1674
a(I18
I24
I200
I238
I39
tp1675
a(I18
I25
I199
I238
I40
tp1676
a(I18
I26
I198
I236
I38
tp1677
a(I146
I26
I134
I255
I64
tp1678
a(I146
I27
I133
I238
I39
tp1679
a(I146
I28
I132
I238
I39
tp1680
a(I146
I29
I131
I238
I39
tp1681
a(I146
I30
I130
I238
I39
tp1682
a(I146
I31
I129
I238
I39
tp1683
a(I237
I31
I128
I238
I39
tp1684
a(I237
I30
I127
I238
I39
tp1685
a(I237
I29
I126
I238
I39
tp1686
a(I237
I28
I125
I238
I39
tp1687
a(I237
I27
I124
I238
I39
tp1688
a(I237
I26
I123
I238
I39
tp1689
a(I237
I25
I122
I238
I39
tp1690
a(I237
I24
I121
I238
I39
tp1691
a(I237
I23
I120
I238
I39
tp1692
a(I237
I22
I119
I238
I39
tp1693
a(I237
I21
I118
I238
I39
tp1694
a(I237
I20
I117
I238
I39
tp1695
a(I237
I19
I116
I238
I39
tp1696
a(I237
I18
I115
I238
I39
tp1697
a(I237
I17
I114
I238
I39
tp1698
a(I237
I16
I113
I238
I39
tp1699
a(I237
I15
I112
I238
I39
tp1700
a(I237
I14
I111
I238
I39
tp1701
a(I237
I13
I110
I238
I39
tp1702
a(I237
I12
I109
I238
I39
tp1703
a(I237
I11
I108
I238
I39
tp1704
a(I237
I10
I107
I238
I39
tp1705
a(I237
I9
I106
I238
I39
tp1706
a(I237
I8
I105
I238
I39
tp1707
a(I237
I7
I104
I238
I39
tp1708
a(I237
I6
I103
I238
I39
tp1709
a(I237
I5
I102
I238
I39
tp1710
a(I237
I4
I101
I238
I39
tp1711
a(I237
I3
I100
I238
I39
tp1712
a(I237
I2
I99
I238
I39
tp1713
a(I237
I1
I98
I238
I39
tp1714
a(I237
I0
I97
I238
I39
tp1715
a(I274
I0
I96
I238
I39
tp1716
a(I274
I1
I95
I238
I39
tp1717
a(I274
I2
I94
I238
I39
tp1718
a(I274
I3
I93
I238
I39
tp1719
a(I274
I4
I92
I238
I39
tp1720
a(I274
I5
I91
I238
I39
tp1721
a(I274
I6
I90
I238
I39
tp1722
a(I274
I7
I89
I238
I39
tp1723
a(I274
I8
I88
I238
I39
tp1724
a(I274
I9
I87
I238
I39
tp1725
a(I274
I10
I86
I238
I39
tp1726
a(I274
I11
I85
I238
I39
tp1727
a(I274
I12
I84
I238
I39
tp1728
a(I274
I13
I83
I238
I39
tp1729
a(I274
I14
I82
I238
I38
tp1730
a(I274
I15
I81
I237
I40
tp1731
a(I274
I16
I80
I237
I36
tp1732
a(I493
I23
I56
I255
I64
tp1733
a(I493
I22
I55
I236
I37
tp1734
a(I493
I21
I54
I237
I39
tp1735
a(I493
I20
I53
I237
I40
tp1736
a(I493
I19
I52
I238
I39
tp1737
a(I493
I18
I51
I238
I39
tp1738
a(I493
I17
I50
I238
I39
tp1739
a(I493
I16
I49
I238
I39
tp1740
a(I493
I15
I48
I238
I39
tp1741
a(I493
I14
I47
I238
I39
tp1742
a(I493
I13
I46
I238
I39
tp1743
a(I493
I12
I45
I238
I39
tp1744
a(I493
I11
I44
I238
I39
tp1745
a(I493
I10
I43
I209
I45
tp1746
a(I493
I9
I42
I21
I81
tp1747
a(I493
I8
I41
I21
I81
tp1748
a(I493
I7
I40
I21
I81
tp1749
a(I493
I6
I39
I238
I39
tp1750
a(I493
I5
I38
I238
I39
tp1751
a(I493
I4
I37
I238
I39
tp1752
a(I493
I3
I36
I238
I39
tp1753
a(I493
I2
I35
I238
I39
tp1754
a(I493
I1
I34
I238
I39
tp1755
a(I493
I0
I33
I238
I39
tp1756
a(I594
I0
I31
I242
I38
tp1757
a(I19
I17
I207
I238
I39
tp1758
a(I19
I18
I206
I238
I39
tp1759
a(I19
I19
I205
I238
I39
tp1760
a(I19
I20
I204
I238
I39
tp1761
a(I19
I21
I203
I238
I39
tp1762
a(I19
I22
I202
I238
I39
tp1763
a(I19
I23
I201
I238
I39
tp1764
a(I19
I24
I200
I237
I39
tp1765
a(I147
I28
I132
I239
I32
tp1766
a(I147
I29
I131
I238
I39
tp1767
a(I147
I30
I130
I238
I39
tp1768
a(I147
I31
I129
I238
I39
tp1769
a(I236
I31
I128
I238
I39
tp1770
a(I236
I30
I127
I238
I39
tp1771
a(I236
I29
I126
I238
I39
tp1772
a(I236
I28
I125
I238
I39
tp1773
a(I236
I27
I124
I238
I39
tp1774
a(I236
I26
I123
I238
I39
tp1775
a(I236
I25
I122
I238
I39
tp1776
a(I236
I24
I121
I238
I39
tp1777
a(I236
I23
I120
I238
I39
tp1778
a(I236
I22
I119
I238
I39
tp1779
a(I236
I21
I118
I238
I39
tp1780
a(I236
I20
I117
I238
I39
tp1781
a(I236
I19
I116
I238
I39
tp1782
a(I236
I18
I115
I238
I39
tp1783
a(I236
I17
I114
I238
I39
tp1784
a(I236
I16
I113
I238
I39
tp1785
a(I236
I15
I112
I238
I39
tp1786
a(I236
I14
I111
I238
I39
tp1787
a(I236
I13
I110
I238
I39
tp1788
a(I236
I12
I109
I238
I39
tp1789
a(I236
I11
I108
I238
I39
tp1790
a(I236
I10
I107
I238
I39
tp1791
a(I236
I9
I106
I238
I39
tp1792
a(I236
I8
I105
I238
I39
tp1793
a(I236
I7
I104
I238
I39
tp1794
a(I236
I6
I103
I238
I39
tp1795
a(I236
I5
I102
I238
I39
tp1796
a(I236
I4
I101
I238
I39
tp1797
a(I236
I3
I100
I238
I39
tp1798
a(I236
I2
I99
I238
I39
tp1799
a(I236
I1
I98
I238
I39
tp1800
a(I236
I0
I97
I238
I39
tp1801
a(I275
I0
I96
I238
I39
tp1802
a(I275
I1
I95
I238
I39
tp1803
a(I275
I2
I94
I238
I39
tp1804
a(I275
I3
I93
I238
I39
tp1805
a(I275
I4
I92
I238
I39
tp1806
a(I275
I5
I91
I238
I39
tp1807
a(I275
I6
I90
I238
I39
tp1808
a(I275
I7
I89
I238
I39
tp1809
a(I275
I8
I88
I238
I39
tp1810
a(I275
I9
I87
I238
I39
tp1811
a(I275
I10
I86
I238
I39
tp1812
a(I275
I11
I85
I238
I39
tp1813
a(I275
I12
I84
I238
I39
tp1814
a(I275
I13
I83
I238
I39
tp1815
a(I275
I14
I82
I238
I39
tp1816
a(I275
I15
I81
I238
I39
tp1817
a(I275
I16
I80
I238
I39
tp1818
a(I275
I17
I79
I238
I39
tp1819
a(I275
I18
I78
I239
I38
tp1820
a(I275
I19
I77
I237
I39
tp1821
a(I275
I20
I76
I237
I38
tp1822
a(I275
I21
I75
I238
I39
tp1823
a(I275
I22
I74
I236
I38
tp1824
a(I275
I23
I73
I238
I41
tp1825
a(I275
I24
I72
I243
I35
tp1826
a(I275
I25
I71
I234
I43
tp1827
a(I275
I26
I70
I255
I36
tp1828
a(I275
I27
I69
I255
I0
tp1829
a(I275
I30
I66
I255
I64
tp1830
a(I275
I31
I65
I240
I45
tp1831
a(I492
I31
I64
I237
I35
tp1832
a(I492
I30
I63
I237
I36
tp1833
a(I492
I29
I62
I237
I40
tp1834
a(I492
I28
I61
I237
I39
tp1835
a(I492
I27
I60
I237
I40
tp1836
a(I492
I26
I59
I237
I39
tp1837
a(I492
I25
I58
I237
I38
tp1838
a(I492
I24
I57
I238
I39
tp1839
a(I492
I23
I56
I238
I39
tp1840
a(I492
I22
I55
I238
I39
tp1841
a(I492
I21
I54
I238
I39
tp1842
a(I492
I20
I53
I238
I39
tp1843
a(I492
I19
I52
I238
I39
tp1844
a(I492
I18
I51
I238
I39
tp1845
a(I492
I17
I50
I238
I39
tp1846
a(I492
I16
I49
I238
I39
tp1847
a(I492
I15
I48
I238
I39
tp1848
a(I492
I14
I47
I238
I39
tp1849
a(I492
I13
I46
I238
I39
tp1850
a(I492
I12
I45
I238
I39
tp1851
a(I492
I11
I44
I238
I39
tp1852
a(I492
I10
I43
I209
I45
tp1853
a(I492
I9
I42
I21
I81
tp1854
a(I492
I8
I41
I21
I81
tp1855
a(I492
I7
I40
I21
I81
tp1856
a(I492
I6
I39
I223
I41
tp1857
a(I492
I5
I38
I238
I39
tp1858
a(I492
I4
I37
I238
I39
tp1859
a(I492
I3
I36
I238
I39
tp1860
a(I492
I2
I35
I238
I39
tp1861
a(I492
I1
I34
I238
I39
tp1862
a(I492
I0
I33
I237
I39
tp1863
a(I20
I16
I208
I237
I40
tp1864
a(I20
I17
I207
I238
I39
tp1865
a(I20
I18
I206
I238
I39
tp1866
a(I20
I19
I205
I238
I39
tp1867
a(I20
I20
I204
I238
I39
tp1868
a(I20
I21
I203
I238
I39
tp1869
a(I20
I22
I202
I239
I38
tp1870
a(I20
I23
I201
I255
I36
tp1871
a(I148
I30
I130
I241
I41
tp1872
a(I148
I31
I129
I238
I38
tp1873
a(I235
I31
I128
I238
I39
tp1874
a(I235
I30
I127
I238
I39
tp1875
a(I235
I29
I126
I238
I39
tp1876
a(I235
I28
I125
I238
I39
tp1877
a(I235
I27
I124
I238
I39
tp1878
a(I235
I26
I123
I238
I39
tp1879
a(I235
I25
I122
I238
I39
tp1880
a(I235
I24
I121
I238
I39
tp1881
a(I235
I23
I120
I238
I39
tp1882
a(I235
I22
I119
I238
I39
tp1883
a(I235
I21
I118
I238
I39
tp1884
a(I235
I20
I117
I238
I39
tp1885
a(I235
I19
I116
I238
I39
tp1886
a(I235
I18
I115
I238
I39
tp1887
a(I235
I17
I114
I238
I39
tp1888
a(I235
I16
I113
I238
I39
tp1889
a(I235
I15
I112
I238
I39
tp1890
a(I235
I14
I111
I238
I39
tp1891
a(I235
I13
I110
I238
I39
tp1892
a(I235
I12
I109
I238
I39
tp1893
a(I235
I11
I108
I238
I39
tp1894
a(I235
I10
I107
I238
I39
tp1895
a(I235
I9
I106
I238
I39
tp1896
a(I235
I8
I105
I238
I39
tp1897
a(I235
I7
I104
I238
I39
tp1898
a(I235
I6
I103
I238
I39
tp1899
a(I235
I5
I102
I238
I39
tp1900
a(I235
I4
I101
I238
I39
tp1901
a(I235
I3
I100
I238
I39
tp1902
a(I235
I2
I99
I238
I39
tp1903
a(I235
I1
I98
I238
I39
tp1904
a(I235
I0
I97
I238
I39
tp1905
a(I276
I0
I96
I238
I39
tp1906
a(I276
I1
I95
I238
I39
tp1907
a(I276
I2
I94
I238
I39
tp1908
a(I276
I3
I93
I238
I39
tp1909
a(I276
I4
I92
I238
I39
tp1910
a(I276
I5
I91
I238
I39
tp1911
a(I276
I6
I90
I238
I39
tp1912
a(I276
I7
I89
I238
I39
tp1913
a(I276
I8
I88
I238
I39
tp1914
a(I276
I9
I87
I238
I39
tp1915
a(I276
I10
I86
I238
I39
tp1916
a(I276
I11
I85
I238
I39
tp1917
a(I276
I12
I84
I238
I39
tp1918
a(I276
I13
I83
I238
I39
tp1919
a(I276
I14
I82
I238
I39
tp1920
a(I276
I15
I81
I238
I39
tp1921
a(I276
I16
I80
I238
I39
tp1922
a(I276
I17
I79
I238
I39
tp1923
a(I276
I18
I78
I238
I39
tp1924
a(I276
I19
I77
I238
I39
tp1925
a(I276
I20
I76
I238
I39
tp1926
a(I276
I21
I75
I238
I39
tp1927
a(I276
I22
I74
I238
I39
tp1928
a(I276
I23
I73
I238
I39
tp1929
a(I276
I24
I72
I238
I39
tp1930
a(I276
I25
I71
I238
I39
tp1931
a(I276
I26
I70
I238
I39
tp1932
a(I276
I27
I69
I238
I39
tp1933
a(I276
I28
I68
I238
I39
tp1934
a(I276
I29
I67
I238
I39
tp1935
a(I276
I30
I66
I238
I39
tp1936
a(I276
I31
I65
I238
I39
tp1937
a(I491
I31
I64
I238
I39
tp1938
a(I491
I30
I63
I238
I39
tp1939
a(I491
I29
I62
I238
I39
tp1940
a(I491
I28
I61
I238
I39
tp1941
a(I491
I27
I60
I238
I39
tp1942
a(I491
I26
I59
I238
I39
tp1943
a(I491
I25
I58
I238
I39
tp1944
a(I491
I24
I57
I238
I39
tp1945
a(I491
I23
I56
I238
I39
tp1946
a(I491
I22
I55
I238
I39
tp1947
a(I491
I21
I54
I238
I39
tp1948
a(I491
I20
I53
I238
I39
tp1949
a(I491
I19
I52
I238
I39
tp1950
a(I491
I18
I51
I238
I39
tp1951
a(I491
I17
I50
I238
I39
tp1952
a(I491
I16
I49
I238
I39
tp1953
a(I491
I15
I48
I238
I39
tp1954
a(I491
I14
I47
I238
I39
tp1955
a(I491
I13
I46
I238
I39
tp1956
a(I491
I12
I45
I238
I39
tp1957
a(I491
I11
I44
I238
I39
tp1958
a(I491
I10
I43
I209
I45
tp1959
a(I491
I9
I42
I21
I81
tp1960
a(I491
I8
I41
I21
I81
tp1961
a(I491
I7
I40
I21
I81
tp1962
a(I491
I6
I39
I219
I42
tp1963
a(I491
I5
I38
I238
I39
tp1964
a(I491
I4
I37
I238
I39
tp1965
a(I491
I3
I36
I238
I39
tp1966
a(I491
I2
I35
I238
I39
tp1967
a(I491
I1
I34
I240
I36
tp1968
a(I21
I15
I209
I238
I39
tp1969
a(I21
I16
I208
I238
I39
tp1970
a(I21
I17
I207
I238
I39
tp1971
a(I21
I18
I206
I238
I39
tp1972
a(I21
I19
I205
I238
I39
tp1973
a(I21
I20
I204
I238
I39
tp1974
a(I21
I21
I203
I237
I36
tp1975
a(I234
I31
I128
I239
I38
tp1976
a(I234
I30
I127
I238
I39
tp1977
a(I234
I29
I126
I238
I39
tp1978
a(I234
I28
I125
I238
I39
tp1979
a(I234
I27
I124
I238
I39
tp1980
a(I234
I26
I123
I238
I39
tp1981
a(I234
I25
I122
I238
I39
tp1982
a(I234
I24
I121
I238
I39
tp1983
a(I234
I23
I120
I238
I39
tp1984
a(I234
I22
I119
I238
I39
tp1985
a(I234
I21
I118
I238
I39
tp1986
a(I234
I20
I117
I238
I39
tp1987
a(I234
I19
I116
I238
I39
tp1988
a(I234
I18
I115
I238
I39
tp1989
a(I234
I17
I114
I238
I39
tp1990
a(I234
I16
I113
I238
I39
tp1991
a(I234
I15
I112
I238
I39
tp1992
a(I234
I14
I111
I238
I39
tp1993
a(I234
I13
I110
I238
I39
tp1994
a(I234
I12
I109
I238
I39
tp1995
a(I234
I11
I108
I238
I39
tp1996
a(I234
I10
I107
I238
I39
tp1997
a(I234
I9
I106
I238
I39
tp1998
a(I234
I8
I105
I238
I39
tp1999
a(I234
I7
I104
I238
I39
tp2000
a(I234
I6
I103
I238
I39
tp2001
a(I234
I5
I102
I238
I39
tp2002
a(I234
I4
I101
I238
I39
tp2003
a(I234
I3
I100
I238
I39
tp2004
a(I234
I2
I99
I238
I39
tp2005
a(I234
I1
I98
I238
I39
tp2006
a(I234
I0
I97
I238
I39
tp2007
a(I277
I0
I96
I238
I39
tp2008
a(I277
I1
I95
I238
I39
tp2009
a(I277
I2
I94
I238
I39
tp2010
a(I277
I3
I93
I238
I39
tp2011
a(I277
I4
I92
I238
I39
tp2012
a(I277
I5
I91
I238
I39
tp2013
a(I277
I6
I90
I238
I39
tp2014
a(I277
I7
I89
I238
I39
tp2015
a(I277
I8
I88
I238
I39
tp2016
a(I277
I9
I87
I238
I39
tp2017
a(I277
I10
I86
I238
I39
tp2018
a(I277
I11
I85
I238
I39
tp2019
a(I277
I12
I84
I238
I39
tp2020
a(I277
I13
I83
I238
I39
tp2021
a(I277
I14
I82
I238
I39
tp2022
a(I277
I15
I81
I238
I39
tp2023
a(I277
I16
I80
I238
I39
tp2024
a(I277
I17
I79
I238
I39
tp2025
a(I277
I18
I78
I238
I39
tp2026
a(I277
I19
I77
I238
I39
tp2027
a(I277
I20
I76
I238
I39
tp2028
a(I277
I21
I75
I238
I39
tp2029
a(I277
I22
I74
I238
I39
tp2030
a(I277
I23
I73
I238
I39
tp2031
a(I277
I24
I72
I238
I39
tp2032
a(I277
I25
I71
I238
I39
tp2033
a(I277
I26
I70
I238
I39
tp2034
a(I277
I27
I69
I238
I39
tp2035
a(I277
I28
I68
I238
I39
tp2036
a(I277
I29
I67
I238
I39
tp2037
a(I277
I30
I66
I238
I39
tp2038
a(I277
I31
I65
I238
I39
tp2039
a(I490
I31
I64
I238
I39
tp2040
a(I490
I30
I63
I238
I39
tp2041
a(I490
I29
I62
I238
I39
tp2042
a(I490
I28
I61
I238
I39
tp2043
a(I490
I27
I60
I238
I39
tp2044
a(I490
I26
I59
I238
I39
tp2045
a(I490
I25
I58
I238
I39
tp2046
a(I490
I24
I57
I238
I39
tp2047
a(I490
I23
I56
I238
I39
tp2048
a(I490
I22
I55
I238
I39
tp2049
a(I490
I21
I54
I238
I39
tp2050
a(I490
I20
I53
I238
I39
tp2051
a(I490
I19
I52
I238
I39
tp2052
a(I490
I18
I51
I238
I39
tp2053
a(I490
I17
I50
I238
I39
tp2054
a(I490
I16
I49
I238
I39
tp2055
a(I490
I15
I48
I238
I39
tp2056
a(I490
I14
I47
I238
I39
tp2057
a(I490
I13
I46
I238
I39
tp2058
a(I490
I12
I45
I238
I39
tp2059
a(I490
I11
I44
I238
I39
tp2060
a(I490
I10
I43
I204
I46
tp2061
a(I490
I9
I42
I21
I81
tp2062
a(I490
I8
I41
I21
I81
tp2063
a(I490
I7
I40
I21
I81
tp2064
a(I490
I6
I39
I209
I45
tp2065
a(I490
I5
I38
I238
I39
tp2066
a(I490
I4
I37
I238
I39
tp2067
a(I490
I3
I36
I239
I39
tp2068
a(I490
I2
I35
I255
I0
tp2069
a(I22
I14
I210
I238
I40
tp2070
a(I22
I15
I209
I238
I39
tp2071
a(I22
I16
I208
I238
I39
tp2072
a(I22
I17
I207
I238
I39
tp2073
a(I22
I18
I206
I238
I39
tp2074
a(I22
I19
I205
I238
I39
tp2075
a(I22
I20
I204
I255
I0
tp2076
a(I233
I30
I127
I236
I38
tp2077
a(I233
I29
I126
I238
I39
tp2078
a(I233
I28
I125
I238
I39
tp2079
a(I233
I27
I124
I238
I39
tp2080
a(I233
I26
I123
I238
I39
tp2081
a(I233
I25
I122
I238
I39
tp2082
a(I233
I24
I121
I238
I39
tp2083
a(I233
I23
I120
I238
I39
tp2084
a(I233
I22
I119
I238
I39
tp2085
a(I233
I21
I118
I238
I39
tp2086
a(I233
I20
I117
I238
I39
tp2087
a(I233
I19
I116
I238
I39
tp2088
a(I233
I18
I115
I238
I39
tp2089
a(I233
I17
I114
I238
I39
tp2090
a(I233
I16
I113
I238
I39
tp2091
a(I233
I15
I112
I238
I39
tp2092
a(I233
I14
I111
I238
I39
tp2093
a(I233
I13
I110
I238
I39
tp2094
a(I233
I12
I109
I238
I39
tp2095
a(I233
I11
I108
I238
I39
tp2096
a(I233
I10
I107
I238
I39
tp2097
a(I233
I9
I106
I238
I39
tp2098
a(I233
I8
I105
I238
I39
tp2099
a(I233
I7
I104
I238
I39
tp2100
a(I233
I6
I103
I238
I39
tp2101
a(I233
I5
I102
I238
I39
tp2102
a(I233
I4
I101
I238
I39
tp2103
a(I233
I3
I100
I238
I39
tp2104
a(I233
I2
I99
I238
I39
tp2105
a(I233
I1
I98
I238
I39
tp2106
a(I233
I0
I97
I238
I39
tp2107
a(I278
I0
I96
I238
I39
tp2108
a(I278
I1
I95
I238
I39
tp2109
a(I278
I2
I94
I238
I39
tp2110
a(I278
I3
I93
I238
I39
tp2111
a(I278
I4
I92
I238
I39
tp2112
a(I278
I5
I91
I238
I39
tp2113
a(I278
I6
I90
I238
I39
tp2114
a(I278
I7
I89
I238
I39
tp2115
a(I278
I8
I88
I238
I39
tp2116
a(I278
I9
I87
I238
I39
tp2117
a(I278
I10
I86
I238
I39
tp2118
a(I278
I11
I85
I238
I39
tp2119
a(I278
I12
I84
I238
I39
tp2120
a(I278
I13
I83
I238
I39
tp2121
a(I278
I14
I82
I238
I39
tp2122
a(I278
I15
I81
I238
I39
tp2123
a(I278
I16
I80
I238
I39
tp2124
a(I278
I17
I79
I238
I39
tp2125
a(I278
I18
I78
I238
I39
tp2126
a(I278
I19
I77
I238
I39
tp2127
a(I278
I20
I76
I238
I39
tp2128
a(I278
I21
I75
I238
I39
tp2129
a(I278
I22
I74
I238
I39
tp2130
a(I278
I23
I73
I238
I39
tp2131
a(I278
I24
I72
I238
I39
tp2132
a(I278
I25
I71
I238
I39
tp2133
a(I278
I26
I70
I238
I39
tp2134
a(I278
I27
I69
I238
I39
tp2135
a(I278
I28
I68
I238
I39
tp2136
a(I278
I29
I67
I238
I39
tp2137
a(I278
I30
I66
I238
I39
tp2138
a(I278
I31
I65
I238
I39
tp2139
a(I489
I31
I64
I238
I39
tp2140
a(I489
I30
I63
I238
I39
tp2141
a(I489
I29
I62
I238
I39
tp2142
a(I489
I28
I61
I238
I39
tp2143
a(I489
I27
I60
I238
I39
tp2144
a(I489
I26
I59
I238
I39
tp2145
a(I489
I25
I58
I238
I39
tp2146
a(I489
I24
I57
I238
I39
tp2147
a(I489
I23
I56
I238
I39
tp2148
a(I489
I22
I55
I238
I39
tp2149
a(I489
I21
I54
I238
I39
tp2150
a(I489
I20
I53
I238
I39
tp2151
a(I489
I19
I52
I238
I39
tp2152
a(I489
I18
I51
I238
I39
tp2153
a(I489
I17
I50
I238
I39
tp2154
a(I489
I16
I49
I238
I39
tp2155
a(I489
I15
I48
I238
I39
tp2156
a(I489
I14
I47
I238
I39
tp2157
a(I489
I13
I46
I238
I39
tp2158
a(I489
I12
I45
I238
I39
tp2159
a(I489
I11
I44
I238
I39
tp2160
a(I489
I10
I43
I194
I47
tp2161
a(I489
I9
I42
I21
I81
tp2162
a(I489
I8
I41
I21
I81
tp2163
a(I489
I7
I40
I21
I81
tp2164
a(I489
I6
I39
I198
I47
tp2165
a(I489
I5
I38
I238
I39
tp2166
a(I489
I4
I37
I240
I36
tp2167
a(I23
I13
I211
I239
I40
tp2168
a(I23
I14
I210
I238
I39
tp2169
a(I23
I15
I209
I238
I39
tp2170
a(I23
I16
I208
I238
I39
tp2171
a(I23
I17
I207
I238
I38
tp2172
a(I23
I18
I206
I239
I38
tp2173
a(I232
I28
I125
I238
I38
tp2174
a(I232
I27
I124
I238
I39
tp2175
a(I232
I26
I123
I238
I39
tp2176
a(I232
I25
I122
I238
I39
tp2177
a(I232
I24
I121
I238
I39
tp2178
a(I232
I23
I120
I238
I39
tp2179
a(I232
I22
I119
I238
I39
tp2180
a(I232
I21
I118
I238
I39
tp2181
a(I232
I20
I117
I238
I39
tp2182
a(I232
I19
I116
I238
I39
tp2183
a(I232
I18
I115
I238
I39
tp2184
a(I232
I17
I114
I238
I39
tp2185
a(I232
I16
I113
I238
I39
tp2186
a(I232
I15
I112
I238
I39
tp2187
a(I232
I14
I111
I238
I39
tp2188
a(I232
I13
I110
I238
I39
tp2189
a(I232
I12
I109
I238
I39
tp2190
a(I232
I11
I108
I238
I39
tp2191
a(I232
I10
I107
I238
I39
tp2192
a(I232
I9
I106
I238
I39
tp2193
a(I232
I8
I105
I238
I39
tp2194
a(I232
I7
I104
I238
I39
tp2195
a(I232
I6
I103
I238
I39
tp2196
a(I232
I5
I102
I238
I39
tp2197
a(I232
I4
I101
I238
I39
tp2198
a(I232
I3
I100
I238
I39
tp2199
a(I232
I2
I99
I238
I39
tp2200
a(I232
I1
I98
I238
I39
tp2201
a(I232
I0
I97
I238
I39
tp2202
a(I279
I0
I96
I238
I39
tp2203
a(I279
I1
I95
I238
I39
tp2204
a(I279
I2
I94
I238
I39
tp2205
a(I279
I3
I93
I238
I39
tp2206
a(I279
I4
I92
I238
I39
tp2207
a(I279
I5
I91
I238
I39
tp2208
a(I279
I6
I90
I238
I39
tp2209
a(I279
I7
I89
I238
I39
tp2210
a(I279
I8
I88
I238
I39
tp2211
a(I279
I9
I87
I238
I39
tp2212
a(I279
I10
I86
I238
I39
tp2213
a(I279
I11
I85
I238
I39
tp2214
a(I279
I12
I84
I238
I39
tp2215
a(I279
I13
I83
I238
I39
tp2216
a(I279
I14
I82
I238
I39
tp2217
a(I279
I15
I81
I238
I39
tp2218
a(I279
I16
I80
I238
I39
tp2219
a(I279
I17
I79
I238
I39
tp2220
a(I279
I18
I78
I238
I39
tp2221
a(I279
I19
I77
I238
I39
tp2222
a(I279
I20
I76
I238
I39
tp2223
a(I279
I21
I75
I238
I39
tp2224
a(I279
I22
I74
I238
I39
tp2225
a(I279
I23
I73
I238
I39
tp2226
a(I279
I24
I72
I238
I39
tp2227
a(I279
I25
I71
I238
I39
tp2228
a(I279
I26
I70
I238
I39
tp2229
a(I279
I27
I69
I238
I39
tp2230
a(I279
I28
I68
I238
I39
tp2231
a(I279
I29
I67
I238
I39
tp2232
a(I279
I30
I66
I238
I39
tp2233
a(I279
I31
I65
I238
I39
tp2234
a(I488
I31
I64
I238
I39
tp2235
a(I488
I30
I63
I238
I39
tp2236
a(I488
I29
I62
I238
I39
tp2237
a(I488
I28
I61
I238
I39
tp2238
a(I488
I27
I60
I238
I39
tp2239
a(I488
I26
I59
I238
I39
tp2240
a(I488
I25
I58
I238
I39
tp2241
a(I488
I24
I57
I238
I39
tp2242
a(I488
I23
I56
I238
I39
tp2243
a(I488
I22
I55
I238
I39
tp2244
a(I488
I21
I54
I238
I39
tp2245
a(I488
I20
I53
I238
I39
tp2246
a(I488
I19
I52
I238
I39
tp2247
a(I488
I18
I51
I238
I39
tp2248
a(I488
I17
I50
I238
I39
tp2249
a(I488
I16
I49
I238
I39
tp2250
a(I488
I15
I48
I238
I39
tp2251
a(I488
I14
I47
I238
I39
tp2252
a(I488
I13
I46
I238
I39
tp2253
a(I488
I12
I45
I238
I39
tp2254
a(I488
I11
I44
I238
I39
tp2255
a(I488
I10
I43
I187
I49
tp2256
a(I488
I9
I42
I21
I81
tp2257
a(I488
I8
I41
I21
I81
tp2258
a(I488
I7
I40
I21
I81
tp2259
a(I488
I6
I39
I148
I57
tp2260
a(I488
I5
I38
I255
I0
tp2261
a(I24
I12
I212
I238
I40
tp2262
a(I24
I13
I211
I238
I39
tp2263
a(I24
I14
I210
I238
I39
tp2264
a(I24
I15
I209
I238
I39
tp2265
a(I24
I16
I208
I238
I40
tp2266
a(I24
I17
I207
I232
I46
tp2267
a(I231
I27
I124
I243
I35
tp2268
a(I231
I26
I123
I239
I38
tp2269
a(I231
I25
I122
I238
I39
tp2270
a(I231
I24
I121
I238
I39
tp2271
a(I231
I23
I120
I238
I39
tp2272
a(I231
I22
I119
I238
I39
tp2273
a(I231
I21
I118
I238
I39
tp2274
a(I231
I20
I117
I238
I39
tp2275
a(I231
I19
I116
I238
I39
tp2276
a(I231
I18
I115
I238
I39
tp2277
a(I231
I17
I114
I238
I39
tp2278
a(I231
I16
I113
I238
I39
tp2279
a(I231
I15
I112
I238
I39
tp2280
a(I231
I14
I111
I238
I39
tp2281
a(I231
I13
I110
I238
I39
tp2282
a(I231
I12
I109
I238
I39
tp2283
a(I231
I11
I108
I238
I39
tp2284
a(I231
I10
I107
I238
I39
tp2285
a(I231
I9
I106
I238
I39
tp2286
a(I231
I8
I105
I238
I39
tp2287
a(I231
I7
I104
I238
I39
tp2288
a(I231
I6
I103
I238
I39
tp2289
a(I231
I5
I102
I238
I39
tp2290
a(I231
I4
I101
I238
I39
tp2291
a(I231
I3
I100
I238
I39
tp2292
a(I231
I2
I99
I238
I39
tp2293
a(I231
I1
I98
I238
I39
tp2294
a(I231
I0
I97
I238
I39
tp2295
a(I280
I0
I96
I238
I39
tp2296
a(I280
I1
I95
I238
I39
tp2297
a(I280
I2
I94
I238
I39
tp2298
a(I280
I3
I93
I238
I39
tp2299
a(I280
I4
I92
I238
I39
tp2300
a(I280
I5
I91
I238
I39
tp2301
a(I280
I6
I90
I238
I39
tp2302
a(I280
I7
I89
I238
I39
tp2303
a(I280
I8
I88
I238
I39
tp2304
a(I280
I9
I87
I238
I39
tp2305
a(I280
I10
I86
I238
I39
tp2306
a(I280
I11
I85
I238
I39
tp2307
a(I280
I12
I84
I238
I39
tp2308
a(I280
I13
I83
I238
I39
tp2309
a(I280
I14
I82
I238
I39
tp2310
a(I280
I15
I81
I238
I39
tp2311
a(I280
I16
I80
I238
I39
tp2312
a(I280
I17
I79
I238
I39
tp2313
a(I280
I18
I78
I238
I39
tp2314
a(I280
I19
I77
I238
I39
tp2315
a(I280
I20
I76
I238
I39
tp2316
a(I280
I21
I75
I238
I39
tp2317
a(I280
I22
I74
I238
I39
tp2318
a(I280
I23
I73
I238
I39
tp2319
a(I280
I24
I72
I238
I39
tp2320
a(I280
I25
I71
I238
I39
tp2321
a(I280
I26
I70
I238
I39
tp2322
a(I280
I27
I69
I238
I39
tp2323
a(I280
I28
I68
I238
I39
tp2324
a(I280
I29
I67
I238
I39
tp2325
a(I280
I30
I66
I238
I39
tp2326
a(I280
I31
I65
I238
I39
tp2327
a(I487
I31
I64
I238
I39
tp2328
a(I487
I30
I63
I238
I39
tp2329
a(I487
I29
I62
I238
I39
tp2330
a(I487
I28
I61
I238
I39
tp2331
a(I487
I27
I60
I238
I39
tp2332
a(I487
I26
I59
I238
I39
tp2333
a(I487
I25
I58
I238
I39
tp2334
a(I487
I24
I57
I238
I39
tp2335
a(I487
I23
I56
I238
I39
tp2336
a(I487
I22
I55
I238
I39
tp2337
a(I487
I21
I54
I238
I39
tp2338
a(I487
I20
I53
I238
I39
tp2339
a(I487
I19
I52
I238
I39
tp2340
a(I487
I18
I51
I238
I39
tp2341
a(I487
I17
I50
I238
I39
tp2342
a(I487
I16
I49
I238
I39
tp2343
a(I487
I15
I48
I238
I39
tp2344
a(I487
I14
I47
I238
I39
tp2345
a(I487
I13
I46
I238
I39
tp2346
a(I487
I12
I45
I238
I39
tp2347
a(I487
I11
I44
I238
I39
tp2348
a(I487
I10
I43
I181
I51
tp2349
a(I487
I9
I42
I21
I81
tp2350
a(I487
I8
I41
I21
I81
tp2351
a(I487
I7
I40
I21
I81
tp2352
a(I487
I6
I39
I23
I83
tp2353
a(I25
I11
I213
I236
I38
tp2354
a(I25
I12
I212
I238
I39
tp2355
a(I25
I13
I211
I238
I39
tp2356
a(I25
I14
I210
I238
I39
tp2357
a(I25
I15
I209
I238
I40
tp2358
a(I230
I26
I123
I255
I0
tp2359
a(I230
I25
I122
I239
I38
tp2360
a(I230
I24
I121
I238
I39
tp2361
a(I230
I23
I120
I238
I39
tp2362
a(I230
I22
I119
I238
I39
tp2363
a(I230
I21
I118
I238
I39
tp2364
a(I230
I20
I117
I238
I39
tp2365
a(I230
I19
I116
I238
I39
tp2366
a(I230
I18
I115
I238
I39
tp2367
a(I230
I17
I114
I238
I39
tp2368
a(I230
I16
I113
I238
I39
tp2369
a(I230
I15
I112
I238
I39
tp2370
a(I230
I14
I111
I238
I39
tp2371
a(I230
I13
I110
I238
I39
tp2372
a(I230
I12
I109
I238
I39
tp2373
a(I230
I11
I108
I238
I39
tp2374
a(I230
I10
I107
I238
I39
tp2375
a(I230
I9
I106
I238
I39
tp2376
a(I230
I8
I105
I238
I39
tp2377
a(I230
I7
I104
I238
I39
tp2378
a(I230
I6
I103
I238
I39
tp2379
a(I230
I5
I102
I238
I39
tp2380
a(I230
I4
I101
I238
I39
tp2381
a(I230
I3
I100
I238
I39
tp2382
a(I230
I2
I99
I238
I39
tp2383
a(I230
I1
I98
I238
I39
tp2384
a(I230
I0
I97
I238
I39
tp2385
a(I281
I0
I96
I238
I39
tp2386
a(I281
I1
I95
I238
I39
tp2387
a(I281
I2
I94
I238
I39
tp2388
a(I281
I3
I93
I238
I39
tp2389
a(I281
I4
I92
I238
I39
tp2390
a(I281
I5
I91
I238
I39
tp2391
a(I281
I6
I90
I238
I39
tp2392
a(I281
I7
I89
I238
I39
tp2393
a(I281
I8
I88
I238
I39
tp2394
a(I281
I9
I87
I238
I39
tp2395
a(I281
I10
I86
I238
I39
tp2396
a(I281
I11
I85
I238
I39
tp2397
a(I281
I12
I84
I238
I39
tp2398
a(I281
I13
I83
I238
I39
tp2399
a(I281
I14
I82
I238
I39
tp2400
a(I281
I15
I81
I238
I39
tp2401
a(I281
I16
I80
I238
I39
tp2402
a(I281
I17
I79
I238
I39
tp2403
a(I281
I18
I78
I238
I39
tp2404
a(I281
I19
I77
I238
I39
tp2405
a(I281
I20
I76
I238
I39
tp2406
a(I281
I21
I75
I238
I39
tp2407
a(I281
I22
I74
I238
I39
tp2408
a(I281
I23
I73
I238
I39
tp2409
a(I281
I24
I72
I238
I39
tp2410
a(I281
I25
I71
I238
I39
tp2411
a(I281
I26
I70
I238
I39
tp2412
a(I281
I27
I69
I238
I39
tp2413
a(I281
I28
I68
I238
I39
tp2414
a(I281
I29
I67
I238
I39
tp2415
a(I281
I30
I66
I238
I39
tp2416
a(I281
I31
I65
I238
I39
tp2417
a(I486
I31
I64
I238
I39
tp2418
a(I486
I30
I63
I238
I39
tp2419
a(I486
I29
I62
I238
I39
tp2420
a(I486
I28
I61
I238
I39
tp2421
a(I486
I27
I60
I238
I39
tp2422
a(I486
I26
I59
I238
I39
tp2423
a(I486
I25
I58
I238
I39
tp2424
a(I486
I24
I57
I238
I39
tp2425
a(I486
I23
I56
I238
I39
tp2426
a(I486
I22
I55
I238
I39
tp2427
a(I486
I21
I54
I238
I39
tp2428
a(I486
I20
I53
I238
I39
tp2429
a(I486
I19
I52
I238
I39
tp2430
a(I486
I18
I51
I238
I39
tp2431
a(I486
I17
I50
I238
I39
tp2432
a(I486
I16
I49
I238
I39
tp2433
a(I486
I15
I48
I238
I39
tp2434
a(I486
I14
I47
I238
I39
tp2435
a(I486
I13
I46
I238
I39
tp2436
a(I486
I12
I45
I238
I39
tp2437
a(I486
I11
I44
I238
I39
tp2438
a(I486
I10
I43
I160
I54
tp2439
a(I486
I9
I42
I21
I81
tp2440
a(I486
I8
I41
I21
I81
tp2441
a(I486
I7
I40
I21
I81
tp2442
a(I486
I6
I39
I20
I81
tp2443
a(I26
I10
I214
I240
I36
tp2444
a(I26
I11
I213
I238
I39
tp2445
a(I26
I12
I212
I238
I39
tp2446
a(I26
I13
I211
I238
I39
tp2447
a(I26
I14
I210
I237
I40
tp2448
a(I229
I24
I121
I237
I40
tp2449
a(I229
I23
I120
I237
I39
tp2450
a(I229
I22
I119
I238
I39
tp2451
a(I229
I21
I118
I238
I39
tp2452
a(I229
I20
I117
I238
I39
tp2453
a(I229
I19
I116
I238
I39
tp2454
a(I229
I18
I115
I238
I39
tp2455
a(I229
I17
I114
I238
I39
tp2456
a(I229
I16
I113
I238
I39
tp2457
a(I229
I15
I112
I238
I39
tp2458
a(I229
I14
I111
I238
I39
tp2459
a(I229
I13
I110
I238
I39
tp2460
a(I229
I12
I109
I238
I39
tp2461
a(I229
I11
I108
I238
I39
tp2462
a(I229
I10
I107
I238
I39
tp2463
a(I229
I9
I106
I238
I39
tp2464
a(I229
I8
I105
I238
I39
tp2465
a(I229
I7
I104
I238
I39
tp2466
a(I229
I6
I103
I238
I39
tp2467
a(I229
I5
I102
I238
I39
tp2468
a(I229
I4
I101
I238
I39
tp2469
a(I229
I3
I100
I238
I39
tp2470
a(I229
I2
I99
I238
I39
tp2471
a(I229
I1
I98
I238
I39
tp2472
a(I229
I0
I97
I238
I39
tp2473
a(I282
I0
I96
I238
I39
tp2474
a(I282
I1
I95
I238
I39
tp2475
a(I282
I2
I94
I238
I39
tp2476
a(I282
I3
I93
I238
I39
tp2477
a(I282
I4
I92
I238
I39
tp2478
a(I282
I5
I91
I238
I39
tp2479
a(I282
I6
I90
I238
I39
tp2480
a(I282
I7
I89
I238
I39
tp2481
a(I282
I8
I88
I238
I39
tp2482
a(I282
I9
I87
I238
I39
tp2483
a(I282
I10
I86
I238
I39
tp2484
a(I282
I11
I85
I238
I39
tp2485
a(I282
I12
I84
I238
I39
tp2486
a(I282
I13
I83
I238
I39
tp2487
a(I282
I14
I82
I238
I39
tp2488
a(I282
I15
I81
I238
I39
tp2489
a(I282
I16
I80
I238
I39
tp2490
a(I282
I17
I79
I238
I39
tp2491
a(I282
I18
I78
I238
I39
tp2492
a(I282
I19
I77
I238
I39
tp2493
a(I282
I20
I76
I238
I39
tp2494
a(I282
I21
I75
I238
I39
tp2495
a(I282
I22
I74
I238
I39
tp2496
a(I282
I23
I73
I238
I39
tp2497
a(I282
I24
I72
I238
I39
tp2498
a(I282
I25
I71
I238
I39
tp2499
a(I282
I26
I70
I238
I39
tp2500
a(I282
I27
I69
I238
I39
tp2501
a(I282
I28
I68
I238
I39
tp2502
a(I282
I29
I67
I238
I39
tp2503
a(I282
I30
I66
I238
I39
tp2504
a(I282
I31
I65
I238
I39
tp2505
a(I485
I31
I64
I238
I39
tp2506
a(I485
I30
I63
I238
I39
tp2507
a(I485
I29
I62
I238
I39
tp2508
a(I485
I28
I61
I238
I39
tp2509
a(I485
I27
I60
I238
I39
tp2510
a(I485
I26
I59
I238
I39
tp2511
a(I485
I25
I58
I238
I39
tp2512
a(I485
I24
I57
I238
I39
tp2513
a(I485
I23
I56
I238
I39
tp2514
a(I485
I22
I55
I238
I39
tp2515
a(I485
I21
I54
I238
I39
tp2516
a(I485
I20
I53
I238
I39
tp2517
a(I485
I19
I52
I238
I39
tp2518
a(I485
I18
I51
I238
I39
tp2519
a(I485
I17
I50
I238
I39
tp2520
a(I485
I16
I49
I238
I39
tp2521
a(I485
I15
I48
I238
I39
tp2522
a(I485
I14
I47
I238
I39
tp2523
a(I485
I13
I46
I238
I39
tp2524
a(I485
I12
I45
I238
I39
tp2525
a(I485
I11
I44
I238
I39
tp2526
a(I485
I10
I43
I26
I79
tp2527
a(I485
I9
I42
I21
I81
tp2528
a(I485
I8
I41
I21
I81
tp2529
a(I485
I7
I40
I21
I81
tp2530
a(I485
I6
I39
I21
I81
tp2531
a(I27
I9
I215
I234
I43
tp2532
a(I27
I10
I214
I238
I38
tp2533
a(I27
I11
I213
I238
I39
tp2534
a(I27
I12
I212
I238
I39
tp2535
a(I27
I13
I211
I235
I41
tp2536
a(I228
I23
I120
I236
I38
tp2537
a(I228
I22
I119
I238
I38
tp2538
a(I228
I21
I118
I238
I39
tp2539
a(I228
I20
I117
I238
I39
tp2540
a(I228
I19
I116
I238
I39
tp2541
a(I228
I18
I115
I238
I39
tp2542
a(I228
I17
I114
I238
I39
tp2543
a(I228
I16
I113
I238
I39
tp2544
a(I228
I15
I112
I238
I39
tp2545
a(I228
I14
I111
I238
I39
tp2546
a(I228
I13
I110
I238
I39
tp2547
a(I228
I12
I109
I238
I39
tp2548
a(I228
I11
I108
I238
I39
tp2549
a(I228
I10
I107
I238
I39
tp2550
a(I228
I9
I106
I238
I39
tp2551
a(I228
I8
I105
I238
I39
tp2552
a(I228
I7
I104
I238
I39
tp2553
a(I228
I6
I103
I238
I39
tp2554
a(I228
I5
I102
I238
I39
tp2555
a(I228
I4
I101
I238
I39
tp2556
a(I228
I3
I100
I238
I39
tp2557
a(I228
I2
I99
I238
I39
tp2558
a(I228
I1
I98
I238
I39
tp2559
a(I228
I0
I97
I238
I39
tp2560
a(I283
I0
I96
I238
I39
tp2561
a(I283
I1
I95
I238
I39
tp2562
a(I283
I2
I94
I238
I39
tp2563
a(I283
I3
I93
I238
I39
tp2564
a(I283
I4
I92
I238
I39
tp2565
a(I283
I5
I91
I238
I39
tp2566
a(I283
I6
I90
I238
I39
tp2567
a(I283
I7
I89
I238
I39
tp2568
a(I283
I8
I88
I238
I39
tp2569
a(I283
I9
I87
I238
I39
tp2570
a(I283
I10
I86
I238
I39
tp2571
a(I283
I11
I85
I238
I39
tp2572
a(I283
I12
I84
I238
I39
tp2573
a(I283
I13
I83
I238
I39
tp2574
a(I283
I14
I82
I238
I39
tp2575
a(I283
I15
I81
I238
I39
tp2576
a(I283
I16
I80
I238
I39
tp2577
a(I283
I17
I79
I238
I39
tp2578
a(I283
I18
I78
I238
I39
tp2579
a(I283
I19
I77
I238
I39
tp2580
a(I283
I20
I76
I238
I39
tp2581
a(I283
I21
I75
I238
I39
tp2582
a(I283
I22
I74
I238
I39
tp2583
a(I283
I23
I73
I238
I39
tp2584
a(I283
I24
I72
I238
I39
tp2585
a(I283
I25
I71
I238
I39
tp2586
a(I283
I26
I70
I238
I39
tp2587
a(I283
I27
I69
I238
I39
tp2588
a(I283
I28
I68
I238
I39
tp2589
a(I283
I29
I67
I238
I39
tp2590
a(I283
I30
I66
I238
I39
tp2591
a(I283
I31
I65
I238
I39
tp2592
a(I484
I31
I64
I238
I39
tp2593
a(I484
I30
I63
I238
I39
tp2594
a(I484
I29
I62
I238
I39
tp2595
a(I484
I28
I61
I238
I39
tp2596
a(I484
I27
I60
I238
I39
tp2597
a(I484
I26
I59
I238
I39
tp2598
a(I484
I25
I58
I238
I39
tp2599
a(I484
I24
I57
I238
I39
tp2600
a(I484
I23
I56
I238
I39
tp2601
a(I484
I22
I55
I238
I39
tp2602
a(I484
I21
I54
I238
I39
tp2603
a(I484
I20
I53
I238
I39
tp2604
a(I484
I19
I52
I238
I39
tp2605
a(I484
I18
I51
I238
I39
tp2606
a(I484
I17
I50
I238
I39
tp2607
a(I484
I16
I49
I238
I39
tp2608
a(I484
I15
I48
I238
I39
tp2609
a(I484
I14
I47
I238
I39
tp2610
a(I484
I13
I46
I238
I39
tp2611
a(I484
I12
I45
I240
I45
tp2612
a(I484
I10
I43
I20
I82
tp2613
a(I484
I9
I42
I21
I81
tp2614
a(I484
I8
I41
I21
I81
tp2615
a(I484
I7
I40
I21
I81
tp2616
a(I484
I6
I39
I21
I81
tp2617
a(I28
I8
I216
I230
I51
tp2618
a(I28
I9
I215
I238
I39
tp2619
a(I28
I10
I214
I238
I39
tp2620
a(I28
I11
I213
I238
I40
tp2621
a(I28
I12
I212
I255
I43
tp2622
a(I227
I22
I119
I255
I51
tp2623
a(I227
I21
I118
I238
I39
tp2624
a(I227
I20
I117
I238
I39
tp2625
a(I227
I19
I116
I238
I39
tp2626
a(I227
I18
I115
I238
I39
tp2627
a(I227
I17
I114
I238
I39
tp2628
a(I227
I16
I113
I238
I39
tp2629
a(I227
I15
I112
I238
I39
tp2630
a(I227
I14
I111
I238
I39
tp2631
a(I227
I13
I110
I238
I39
tp2632
a(I227
I12
I109
I238
I39
tp2633
a(I227
I11
I108
I238
I39
tp2634
a(I227
I10
I107
I238
I39
tp2635
a(I227
I9
I106
I238
I39
tp2636
a(I227
I8
I105
I238
I39
tp2637
a(I227
I7
I104
I238
I39
tp2638
a(I227
I6
I103
I238
I39
tp2639
a(I227
I5
I102
I238
I39
tp2640
a(I227
I4
I101
I238
I39
tp2641
a(I227
I3
I100
I238
I39
tp2642
a(I227
I2
I99
I238
I39
tp2643
a(I227
I1
I98
I238
I39
tp2644
a(I227
I0
I97
I238
I39
tp2645
a(I284
I0
I96
I238
I39
tp2646
a(I284
I1
I95
I238
I39
tp2647
a(I284
I2
I94
I238
I39
tp2648
a(I284
I3
I93
I238
I39
tp2649
a(I284
I4
I92
I238
I39
tp2650
a(I284
I5
I91
I238
I39
tp2651
a(I284
I6
I90
I238
I39
tp2652
a(I284
I7
I89
I238
I39
tp2653
a(I284
I8
I88
I238
I39
tp2654
a(I284
I9
I87
I238
I39
tp2655
a(I284
I10
I86
I238
I39
tp2656
a(I284
I11
I85
I238
I39
tp2657
a(I284
I12
I84
I238
I39
tp2658
a(I284
I13
I83
I238
I39
tp2659
a(I284
I14
I82
I238
I39
tp2660
a(I284
I15
I81
I238
I39
tp2661
a(I284
I16
I80
I238
I39
tp2662
a(I284
I17
I79
I238
I39
tp2663
a(I284
I18
I78
I238
I39
tp2664
a(I284
I19
I77
I238
I39
tp2665
a(I284
I20
I76
I238
I39
tp2666
a(I284
I21
I75
I238
I39
tp2667
a(I284
I22
I74
I238
I39
tp2668
a(I284
I23
I73
I238
I39
tp2669
a(I284
I24
I72
I238
I39
tp2670
a(I284
I25
I71
I238
I39
tp2671
a(I284
I26
I70
I238
I39
tp2672
a(I284
I27
I69
I238
I39
tp2673
a(I284
I28
I68
I238
I39
tp2674
a(I284
I29
I67
I238
I39
tp2675
a(I284
I30
I66
I238
I39
tp2676
a(I284
I31
I65
I238
I39
tp2677
a(I483
I31
I64
I238
I39
tp2678
a(I483
I30
I63
I238
I39
tp2679
a(I483
I29
I62
I238
I39
tp2680
a(I483
I28
I61
I238
I39
tp2681
a(I483
I27
I60
I238
I39
tp2682
a(I483
I26
I59
I238
I39
tp2683
a(I483
I25
I58
I238
I39
tp2684
a(I483
I24
I57
I238
I39
tp2685
a(I483
I23
I56
I238
I39
tp2686
a(I483
I22
I55
I238
I39
tp2687
a(I483
I21
I54
I238
I39
tp2688
a(I483
I20
I53
I238
I39
tp2689
a(I483
I19
I52
I238
I39
tp2690
a(I483
I18
I51
I238
I39
tp2691
a(I483
I17
I50
I238
I39
tp2692
a(I483
I16
I49
I238
I39
tp2693
a(I483
I15
I48
I238
I40
tp2694
a(I483
I14
I47
I238
I43
tp2695
a(I483
I10
I43
I21
I81
tp2696
a(I483
I9
I42
I21
I81
tp2697
a(I483
I8
I41
I21
I81
tp2698
a(I483
I7
I40
I21
I81
tp2699
a(I483
I6
I39
I20
I81
tp2700
a(I29
I7
I217
I255
I0
tp2701
a(I29
I8
I216
I238
I39
tp2702
a(I29
I9
I215
I238
I39
tp2703
a(I29
I10
I214
I238
I39
tp2704
a(I29
I11
I213
I255
I0
tp2705
a(I226
I20
I117
I239
I39
tp2706
a(I226
I19
I116
I238
I39
tp2707
a(I226
I18
I115
I238
I39
tp2708
a(I226
I17
I114
I238
I39
tp2709
a(I226
I16
I113
I238
I39
tp2710
a(I226
I15
I112
I238
I39
tp2711
a(I226
I14
I111
I238
I39
tp2712
a(I226
I13
I110
I238
I39
tp2713
a(I226
I12
I109
I238
I39
tp2714
a(I226
I11
I108
I238
I39
tp2715
a(I226
I10
I107
I238
I39
tp2716
a(I226
I9
I106
I238
I39
tp2717
a(I226
I8
I105
I238
I39
tp2718
a(I226
I7
I104
I238
I39
tp2719
a(I226
I6
I103
I238
I39
tp2720
a(I226
I5
I102
I238
I39
tp2721
a(I226
I4
I101
I238
I39
tp2722
a(I226
I3
I100
I238
I39
tp2723
a(I226
I2
I99
I238
I39
tp2724
a(I226
I1
I98
I238
I39
tp2725
a(I226
I0
I97
I238
I39
tp2726
a(I285
I0
I96
I238
I39
tp2727
a(I285
I1
I95
I238
I39
tp2728
a(I285
I2
I94
I238
I39
tp2729
a(I285
I3
I93
I238
I39
tp2730
a(I285
I4
I92
I238
I39
tp2731
a(I285
I5
I91
I238
I39
tp2732
a(I285
I6
I90
I238
I39
tp2733
a(I285
I7
I89
I238
I39
tp2734
a(I285
I8
I88
I238
I39
tp2735
a(I285
I9
I87
I238
I39
tp2736
a(I285
I10
I86
I238
I39
tp2737
a(I285
I11
I85
I238
I39
tp2738
a(I285
I12
I84
I238
I39
tp2739
a(I285
I13
I83
I238
I39
tp2740
a(I285
I14
I82
I238
I39
tp2741
a(I285
I15
I81
I238
I39
tp2742
a(I285
I16
I80
I238
I39
tp2743
a(I285
I17
I79
I238
I39
tp2744
a(I285
I18
I78
I238
I39
tp2745
a(I285
I19
I77
I238
I39
tp2746
a(I285
I20
I76
I238
I39
tp2747
a(I285
I21
I75
I238
I39
tp2748
a(I285
I22
I74
I238
I39
tp2749
a(I285
I23
I73
I238
I39
tp2750
a(I285
I24
I72
I238
I39
tp2751
a(I285
I25
I71
I238
I39
tp2752
a(I285
I26
I70
I238
I39
tp2753
a(I285
I27
I69
I238
I39
tp2754
a(I285
I28
I68
I238
I39
tp2755
a(I285
I29
I67
I238
I39
tp2756
a(I285
I30
I66
I238
I39
tp2757
a(I285
I31
I65
I238
I39
tp2758
a(I482
I31
I64
I238
I39
tp2759
a(I482
I30
I63
I238
I39
tp2760
a(I482
I29
I62
I238
I39
tp2761
a(I482
I28
I61
I238
I39
tp2762
a(I482
I27
I60
I238
I39
tp2763
a(I482
I26
I59
I238
I39
tp2764
a(I482
I25
I58
I238
I39
tp2765
a(I482
I24
I57
I238
I39
tp2766
a(I482
I23
I56
I238
I39
tp2767
a(I482
I22
I55
I238
I39
tp2768
a(I482
I21
I54
I238
I39
tp2769
a(I482
I20
I53
I238
I39
tp2770
a(I482
I19
I52
I238
I39
tp2771
a(I482
I18
I51
I238
I39
tp2772
a(I482
I17
I50
I238
I39
tp2773
a(I482
I16
I49
I239
I37
tp2774
a(I482
I10
I43
I21
I81
tp2775
a(I482
I9
I42
I21
I81
tp2776
a(I482
I8
I41
I21
I81
tp2777
a(I482
I7
I40
I21
I81
tp2778
a(I482
I6
I39
I20
I80
tp2779
a(I30
I7
I217
I238
I39
tp2780
a(I30
I8
I216
I238
I39
tp2781
a(I30
I9
I215
I238
I40
tp2782
a(I225
I19
I116
I240
I38
tp2783
a(I225
I18
I115
I238
I39
tp2784
a(I225
I17
I114
I238
I39
tp2785
a(I225
I16
I113
I238
I39
tp2786
a(I225
I15
I112
I238
I39
tp2787
a(I225
I14
I111
I238
I39
tp2788
a(I225
I13
I110
I238
I39
tp2789
a(I225
I12
I109
I238
I39
tp2790
a(I225
I11
I108
I238
I39
tp2791
a(I225
I10
I107
I238
I39
tp2792
a(I225
I9
I106
I238
I39
tp2793
a(I225
I8
I105
I238
I39
tp2794
a(I225
I7
I104
I238
I39
tp2795
a(I225
I6
I103
I238
I39
tp2796
a(I225
I5
I102
I238
I39
tp2797
a(I225
I4
I101
I238
I39
tp2798
a(I225
I3
I100
I238
I39
tp2799
a(I225
I2
I99
I238
I39
tp2800
a(I225
I1
I98
I238
I39
tp2801
a(I225
I0
I97
I238
I39
tp2802
a(I286
I0
I96
I238
I39
tp2803
a(I286
I1
I95
I238
I39
tp2804
a(I286
I2
I94
I238
I39
tp2805
a(I286
I3
I93
I238
I39
tp2806
a(I286
I4
I92
I238
I39
tp2807
a(I286
I5
I91
I238
I39
tp2808
a(I286
I6
I90
I238
I39
tp2809
a(I286
I7
I89
I238
I39
tp2810
a(I286
I8
I88
I238
I39
tp2811
a(I286
I9
I87
I238
I39
tp2812
a(I286
I10
I86
I238
I39
tp2813
a(I286
I11
I85
I238
I39
tp2814
a(I286
I12
I84
I238
I39
tp2815
a(I286
I13
I83
I238
I39
tp2816
a(I286
I14
I82
I238
I39
tp2817
a(I286
I15
I81
I238
I39
tp2818
a(I286
I16
I80
I238
I39
tp2819
a(I286
I17
I79
I238
I39
tp2820
a(I286
I18
I78
I238
I39
tp2821
a(I286
I19
I77
I238
I39
tp2822
a(I286
I20
I76
I238
I39
tp2823
a(I286
I21
I75
I238
I39
tp2824
a(I286
I22
I74
I238
I39
tp2825
a(I286
I23
I73
I238
I39
tp2826
a(I286
I24
I72
I238
I39
tp2827
a(I286
I25
I71
I238
I39
tp2828
a(I286
I26
I70
I238
I39
tp2829
a(I286
I27
I69
I238
I39
tp2830
a(I286
I28
I68
I238
I39
tp2831
a(I286
I29
I67
I238
I39
tp2832
a(I286
I30
I66
I238
I39
tp2833
a(I286
I31
I65
I238
I39
tp2834
a(I481
I31
I64
I238
I39
tp2835
a(I481
I30
I63
I238
I39
tp2836
a(I481
I29
I62
I238
I39
tp2837
a(I481
I28
I61
I238
I39
tp2838
a(I481
I27
I60
I238
I39
tp2839
a(I481
I26
I59
I238
I39
tp2840
a(I481
I25
I58
I238
I39
tp2841
a(I481
I24
I57
I238
I39
tp2842
a(I481
I23
I56
I238
I39
tp2843
a(I481
I22
I55
I238
I39
tp2844
a(I481
I21
I54
I238
I39
tp2845
a(I481
I20
I53
I238
I39
tp2846
a(I481
I19
I52
I237
I38
tp2847
a(I481
I18
I51
I240
I39
tp2848
a(I481
I10
I43
I20
I81
tp2849
a(I481
I9
I42
I21
I81
tp2850
a(I481
I8
I41
I21
I81
tp2851
a(I481
I7
I40
I21
I81
tp2852
a(I481
I6
I39
I20
I80
tp2853
a(I31
I6
I218
I238
I37
tp2854
a(I31
I7
I217
I238
I39
tp2855
a(I31
I8
I216
I239
I40
tp2856
a(I224
I18
I115
I255
I0
tp2857
a(I224
I17
I114
I238
I39
tp2858
a(I224
I16
I113
I238
I39
tp2859
a(I224
I15
I112
I238
I39
tp2860
a(I224
I14
I111
I238
I39
tp2861
a(I224
I13
I110
I238
I39
tp2862
a(I224
I12
I109
I238
I39
tp2863
a(I224
I11
I108
I238
I39
tp2864
a(I224
I10
I107
I238
I39
tp2865
a(I224
I9
I106
I238
I39
tp2866
a(I224
I8
I105
I238
I39
tp2867
a(I224
I7
I104
I238
I39
tp2868
a(I224
I6
I103
I238
I39
tp2869
a(I224
I5
I102
I238
I39
tp2870
a(I224
I4
I101
I238
I39
tp2871
a(I224
I3
I100
I238
I39
tp2872
a(I224
I2
I99
I238
I39
tp2873
a(I224
I1
I98
I238
I39
tp2874
a(I224
I0
I97
I238
I39
tp2875
a(I287
I0
I96
I238
I39
tp2876
a(I287
I1
I95
I238
I39
tp2877
a(I287
I2
I94
I238
I39
tp2878
a(I287
I3
I93
I238
I39
tp2879
a(I287
I4
I92
I238
I39
tp2880
a(I287
I5
I91
I238
I39
tp2881
a(I287
I6
I90
I238
I39
tp2882
a(I287
I7
I89
I238
I39
tp2883
a(I287
I8
I88
I238
I39
tp2884
a(I287
I9
I87
I238
I39
tp2885
a(I287
I10
I86
I238
I39
tp2886
a(I287
I11
I85
I238
I39
tp2887
a(I287
I12
I84
I238
I39
tp2888
a(I287
I13
I83
I238
I39
tp2889
a(I287
I14
I82
I238
I39
tp2890
a(I287
I15
I81
I238
I39
tp2891
a(I287
I16
I80
I238
I39
tp2892
a(I287
I17
I79
I238
I39
tp2893
a(I287
I18
I78
I238
I39
tp2894
a(I287
I19
I77
I238
I39
tp2895
a(I287
I20
I76
I238
I39
tp2896
a(I287
I21
I75
I238
I39
tp2897
a(I287
I22
I74
I238
I39
tp2898
a(I287
I23
I73
I238
I39
tp2899
a(I287
I24
I72
I238
I39
tp2900
a(I287
I25
I71
I238
I39
tp2901
a(I287
I26
I70
I238
I39
tp2902
a(I287
I27
I69
I238
I39
tp2903
a(I287
I28
I68
I238
I39
tp2904
a(I287
I29
I67
I238
I39
tp2905
a(I287
I30
I66
I238
I39
tp2906
a(I287
I31
I65
I238
I39
tp2907
a(I480
I31
I64
I238
I39
tp2908
a(I480
I30
I63
I238
I39
tp2909
a(I480
I29
I62
I238
I39
tp2910
a(I480
I28
I61
I238
I39
tp2911
a(I480
I27
I60
I238
I39
tp2912
a(I480
I26
I59
I238
I39
tp2913
a(I480
I25
I58
I238
I39
tp2914
a(I480
I24
I57
I238
I39
tp2915
a(I480
I23
I56
I238
I39
tp2916
a(I480
I22
I55
I238
I39
tp2917
a(I480
I21
I54
I238
I39
tp2918
a(I480
I20
I53
I238
I40
tp2919
a(I480
I10
I43
I21
I81
tp2920
a(I480
I9
I42
I21
I81
tp2921
a(I480
I8
I41
I21
I81
tp2922
a(I480
I7
I40
I21
I81
tp2923
a(I480
I6
I39
I20
I80
tp2924
a(I32
I5
I219
I238
I39
tp2925
a(I32
I6
I218
I238
I39
tp2926
a(I32
I7
I217
I238
I40
tp2927
a(I223
I16
I113
I241
I41
tp2928
a(I223
I15
I112
I239
I38
tp2929
a(I223
I14
I111
I238
I39
tp2930
a(I223
I13
I110
I238
I39
tp2931
a(I223
I12
I109
I238
I39
tp2932
a(I223
I11
I108
I238
I39
tp2933
a(I223
I10
I107
I238
I39
tp2934
a(I223
I9
I106
I238
I39
tp2935
a(I223
I8
I105
I238
I39
tp2936
a(I223
I7
I104
I238
I39
tp2937
a(I223
I6
I103
I238
I39
tp2938
a(I223
I5
I102
I238
I39
tp2939
a(I223
I4
I101
I238
I39
tp2940
a(I223
I3
I100
I238
I39
tp2941
a(I223
I2
I99
I238
I39
tp2942
a(I223
I1
I98
I238
I39
tp2943
a(I223
I0
I97
I238
I39
tp2944
a(I288
I0
I96
I238
I39
tp2945
a(I288
I1
I95
I238
I39
tp2946
a(I288
I2
I94
I238
I39
tp2947
a(I288
I3
I93
I238
I39
tp2948
a(I288
I4
I92
I238
I39
tp2949
a(I288
I5
I91
I238
I39
tp2950
a(I288
I6
I90
I238
I39
tp2951
a(I288
I7
I89
I238
I39
tp2952
a(I288
I8
I88
I238
I39
tp2953
a(I288
I9
I87
I238
I39
tp2954
a(I288
I10
I86
I238
I39
tp2955
a(I288
I11
I85
I238
I39
tp2956
a(I288
I12
I84
I238
I39
tp2957
a(I288
I13
I83
I238
I39
tp2958
a(I288
I14
I82
I238
I39
tp2959
a(I288
I15
I81
I238
I39
tp2960
a(I288
I16
I80
I238
I39
tp2961
a(I288
I17
I79
I238
I39
tp2962
a(I288
I18
I78
I238
I39
tp2963
a(I288
I19
I77
I238
I39
tp2964
a(I288
I20
I76
I238
I39
tp2965
a(I288
I21
I75
I238
I39
tp2966
a(I288
I22
I74
I238
I39
tp2967
a(I288
I23
I73
I238
I39
tp2968
a(I288
I24
I72
I238
I39
tp2969
a(I288
I25
I71
I238
I39
tp2970
a(I288
I26
I70
I238
I39
tp2971
a(I288
I27
I69
I238
I39
tp2972
a(I288
I28
I68
I238
I39
tp2973
a(I288
I29
I67
I238
I39
tp2974
a(I288
I30
I66
I238
I39
tp2975
a(I288
I31
I65
I238
I39
tp2976
a(I479
I31
I64
I238
I39
tp2977
a(I479
I30
I63
I238
I39
tp2978
a(I479
I29
I62
I238
I39
tp2979
a(I479
I28
I61
I238
I39
tp2980
a(I479
I27
I60
I238
I39
tp2981
a(I479
I26
I59
I238
I39
tp2982
a(I479
I25
I58
I238
I39
tp2983
a(I479
I24
I57
I238
I39
tp2984
a(I479
I23
I56
I238
I39
tp2985
a(I479
I22
I55
I240
I39
tp2986
a(I479
I10
I43
I21
I81
tp2987
a(I479
I9
I42
I21
I81
tp2988
a(I479
I8
I41
I21
I81
tp2989
a(I479
I7
I40
I21
I81
tp2990
a(I479
I6
I39
I20
I80
tp2991
a(I33
I4
I220
I239
I32
tp2992
a(I33
I5
I219
I238
I40
tp2993
a(I33
I6
I218
I238
I40
tp2994
a(I222
I14
I111
I237
I39
tp2995
a(I222
I13
I110
I238
I39
tp2996
a(I222
I12
I109
I238
I39
tp2997
a(I222
I11
I108
I238
I39
tp2998
a(I222
I10
I107
I238
I39
tp2999
a(I222
I9
I106
I238
I39
tp3000
a(I222
I8
I105
I238
I39
tp3001
a(I222
I7
I104
I238
I39
tp3002
a(I222
I6
I103
I238
I39
tp3003
a(I222
I5
I102
I238
I39
tp3004
a(I222
I4
I101
I238
I39
tp3005
a(I222
I3
I100
I238
I39
tp3006
a(I222
I2
I99
I238
I39
tp3007
a(I222
I1
I98
I238
I39
tp3008
a(I222
I0
I97
I238
I39
tp3009
a(I289
I0
I96
I238
I39
tp3010
a(I289
I1
I95
I238
I39
tp3011
a(I289
I2
I94
I238
I39
tp3012
a(I289
I3
I93
I238
I39
tp3013
a(I289
I4
I92
I238
I39
tp3014
a(I289
I5
I91
I238
I39
tp3015
a(I289
I6
I90
I238
I39
tp3016
a(I289
I7
I89
I238
I39
tp3017
a(I289
I8
I88
I238
I39
tp3018
a(I289
I9
I87
I238
I39
tp3019
a(I289
I10
I86
I238
I39
tp3020
a(I289
I11
I85
I238
I39
tp3021
a(I289
I12
I84
I238
I39
tp3022
a(I289
I13
I83
I238
I39
tp3023
a(I289
I14
I82
I238
I39
tp3024
a(I289
I15
I81
I238
I39
tp3025
a(I289
I16
I80
I238
I39
tp3026
a(I289
I17
I79
I238
I39
tp3027
a(I289
I18
I78
I238
I39
tp3028
a(I289
I19
I77
I238
I39
tp3029
a(I289
I20
I76
I238
I39
tp3030
a(I289
I21
I75
I238
I39
tp3031
a(I289
I22
I74
I238
I39
tp3032
a(I289
I23
I73
I238
I39
tp3033
a(I289
I24
I72
I238
I39
tp3034
a(I289
I25
I71
I238
I39
tp3035
a(I289
I26
I70
I238
I39
tp3036
a(I289
I27
I69
I238
I39
tp3037
a(I289
I28
I68
I238
I39
tp3038
a(I289
I29
I67
I238
I39
tp3039
a(I289
I30
I66
I238
I39
tp3040
a(I289
I31
I65
I238
I39
tp3041
a(I478
I31
I64
I238
I39
tp3042
a(I478
I30
I63
I238
I39
tp3043
a(I478
I29
I62
I238
I39
tp3044
a(I478
I28
I61
I238
I39
tp3045
a(I478
I27
I60
I238
I39
tp3046
a(I478
I26
I59
I239
I39
tp3047
a(I478
I25
I58
I238
I38
tp3048
a(I478
I24
I57
I234
I43
tp3049
a(I478
I10
I43
I20
I81
tp3050
a(I478
I9
I42
I21
I81
tp3051
a(I478
I8
I41
I21
I81
tp3052
a(I478
I7
I40
I21
I81
tp3053
a(I478
I6
I39
I21
I80
tp3054
a(I34
I3
I221
I255
I0
tp3055
a(I34
I4
I220
I238
I40
tp3056
a(I34
I5
I219
I237
I40
tp3057
a(I221
I13
I110
I255
I43
tp3058
a(I221
I12
I109
I238
I39
tp3059
a(I221
I11
I108
I238
I39
tp3060
a(I221
I10
I107
I238
I39
tp3061
a(I221
I9
I106
I238
I39
tp3062
a(I221
I8
I105
I238
I39
tp3063
a(I221
I7
I104
I238
I39
tp3064
a(I221
I6
I103
I238
I39
tp3065
a(I221
I5
I102
I238
I39
tp3066
a(I221
I4
I101
I238
I39
tp3067
a(I221
I3
I100
I238
I39
tp3068
a(I221
I2
I99
I238
I39
tp3069
a(I221
I1
I98
I238
I39
tp3070
a(I221
I0
I97
I238
I39
tp3071
a(I290
I0
I96
I238
I39
tp3072
a(I290
I1
I95
I238
I39
tp3073
a(I290
I2
I94
I238
I39
tp3074
a(I290
I3
I93
I238
I39
tp3075
a(I290
I4
I92
I238
I39
tp3076
a(I290
I5
I91
I238
I39
tp3077
a(I290
I6
I90
I238
I39
tp3078
a(I290
I7
I89
I238
I39
tp3079
a(I290
I8
I88
I238
I39
tp3080
a(I290
I9
I87
I238
I39
tp3081
a(I290
I10
I86
I238
I39
tp3082
a(I290
I11
I85
I238
I39
tp3083
a(I290
I12
I84
I238
I39
tp3084
a(I290
I13
I83
I238
I39
tp3085
a(I290
I14
I82
I238
I39
tp3086
a(I290
I15
I81
I238
I39
tp3087
a(I290
I16
I80
I238
I39
tp3088
a(I290
I17
I79
I238
I39
tp3089
a(I290
I18
I78
I238
I39
tp3090
a(I290
I19
I77
I238
I39
tp3091
a(I290
I20
I76
I238
I39
tp3092
a(I290
I21
I75
I238
I39
tp3093
a(I290
I22
I74
I238
I39
tp3094
a(I290
I23
I73
I238
I39
tp3095
a(I290
I24
I72
I238
I39
tp3096
a(I290
I25
I71
I238
I39
tp3097
a(I290
I26
I70
I238
I39
tp3098
a(I290
I27
I69
I238
I39
tp3099
a(I290
I28
I68
I238
I39
tp3100
a(I290
I29
I67
I238
I39
tp3101
a(I290
I30
I66
I238
I39
tp3102
a(I290
I31
I65
I238
I39
tp3103
a(I477
I31
I64
I238
I39
tp3104
a(I477
I30
I63
I238
I39
tp3105
a(I477
I29
I62
I238
I39
tp3106
a(I477
I28
I61
I239
I39
tp3107
a(I477
I27
I60
I238
I39
tp3108
a(I477
I26
I59
I255
I0
tp3109
a(I477
I10
I43
I21
I81
tp3110
a(I477
I9
I42
I21
I81
tp3111
a(I477
I8
I41
I21
I81
tp3112
a(I477
I7
I40
I21
I81
tp3113
a(I477
I6
I39
I21
I81
tp3114
a(I35
I3
I221
I238
I38
tp3115
a(I35
I4
I220
I238
I38
tp3116
a(I220
I11
I108
I255
I0
tp3117
a(I220
I10
I107
I239
I40
tp3118
a(I220
I9
I106
I238
I40
tp3119
a(I220
I8
I105
I238
I39
tp3120
a(I220
I7
I104
I238
I39
tp3121
a(I220
I6
I103
I238
I39
tp3122
a(I220
I5
I102
I238
I39
tp3123
a(I220
I4
I101
I238
I39
tp3124
a(I220
I3
I100
I238
I39
tp3125
a(I220
I2
I99
I238
I39
tp3126
a(I220
I1
I98
I238
I39
tp3127
a(I220
I0
I97
I238
I39
tp3128
a(I291
I0
I96
I238
I39
tp3129
a(I291
I1
I95
I238
I39
tp3130
a(I291
I2
I94
I238
I39
tp3131
a(I291
I3
I93
I238
I39
tp3132
a(I291
I4
I92
I238
I39
tp3133
a(I291
I5
I91
I238
I39
tp3134
a(I291
I6
I90
I238
I39
tp3135
a(I291
I7
I89
I238
I39
tp3136
a(I291
I8
I88
I238
I39
tp3137
a(I291
I9
I87
I238
I39
tp3138
a(I291
I10
I86
I238
I39
tp3139
a(I291
I11
I85
I238
I39
tp3140
a(I291
I12
I84
I238
I39
tp3141
a(I291
I13
I83
I238
I39
tp3142
a(I291
I14
I82
I238
I39
tp3143
a(I291
I15
I81
I238
I39
tp3144
a(I291
I16
I80
I238
I39
tp3145
a(I291
I17
I79
I238
I39
tp3146
a(I291
I18
I78
I238
I39
tp3147
a(I291
I19
I77
I238
I39
tp3148
a(I291
I20
I76
I238
I39
tp3149
a(I291
I21
I75
I238
I39
tp3150
a(I291
I22
I74
I238
I39
tp3151
a(I291
I23
I73
I238
I39
tp3152
a(I291
I24
I72
I238
I39
tp3153
a(I291
I25
I71
I238
I39
tp3154
a(I291
I26
I70
I238
I39
tp3155
a(I291
I27
I69
I238
I39
tp3156
a(I291
I28
I68
I238
I39
tp3157
a(I291
I29
I67
I238
I39
tp3158
a(I291
I30
I66
I238
I39
tp3159
a(I291
I31
I65
I238
I39
tp3160
a(I476
I31
I64
I238
I39
tp3161
a(I476
I30
I63
I238
I39
tp3162
a(I476
I29
I62
I230
I51
tp3163
a(I476
I10
I43
I20
I81
tp3164
a(I476
I9
I42
I21
I81
tp3165
a(I476
I8
I41
I21
I81
tp3166
a(I476
I7
I40
I21
I81
tp3167
a(I476
I6
I39
I21
I81
tp3168
a(I36
I2
I222
I237
I40
tp3169
a(I36
I3
I221
I239
I38
tp3170
a(I219
I8
I105
I240
I39
tp3171
a(I219
I7
I104
I237
I39
tp3172
a(I219
I6
I103
I238
I39
tp3173
a(I219
I5
I102
I238
I39
tp3174
a(I219
I4
I101
I238
I39
tp3175
a(I219
I3
I100
I238
I39
tp3176
a(I219
I2
I99
I238
I39
tp3177
a(I219
I1
I98
I238
I39
tp3178
a(I219
I0
I97
I238
I39
tp3179
a(I292
I0
I96
I238
I39
tp3180
a(I292
I1
I95
I238
I39
tp3181
a(I292
I2
I94
I238
I39
tp3182
a(I292
I3
I93
I238
I39
tp3183
a(I292
I4
I92
I238
I39
tp3184
a(I292
I5
I91
I238
I39
tp3185
a(I292
I6
I90
I238
I39
tp3186
a(I292
I7
I89
I238
I39
tp3187
a(I292
I8
I88
I238
I39
tp3188
a(I292
I9
I87
I238
I39
tp3189
a(I292
I10
I86
I238
I39
tp3190
a(I292
I11
I85
I238
I39
tp3191
a(I292
I12
I84
I238
I39
tp3192
a(I292
I13
I83
I238
I39
tp3193
a(I292
I14
I82
I238
I39
tp3194
a(I292
I15
I81
I238
I39
tp3195
a(I292
I16
I80
I238
I39
tp3196
a(I292
I17
I79
I238
I39
tp3197
a(I292
I18
I78
I238
I39
tp3198
a(I292
I19
I77
I238
I39
tp3199
a(I292
I20
I76
I238
I39
tp3200
a(I292
I21
I75
I238
I39
tp3201
a(I292
I22
I74
I238
I39
tp3202
a(I292
I23
I73
I238
I39
tp3203
a(I292
I24
I72
I238
I39
tp3204
a(I292
I25
I71
I238
I39
tp3205
a(I292
I26
I70
I238
I39
tp3206
a(I292
I27
I69
I238
I39
tp3207
a(I292
I28
I68
I238
I39
tp3208
a(I292
I29
I67
I238
I39
tp3209
a(I292
I30
I66
I238
I38
tp3210
a(I292
I31
I65
I239
I32
tp3211
a(I475
I10
I43
I21
I81
tp3212
a(I475
I9
I42
I21
I81
tp3213
a(I475
I8
I41
I21
I81
tp3214
a(I475
I7
I40
I21
I81
tp3215
a(I475
I6
I39
I21
I81
tp3216
a(I37
I1
I223
I237
I36
tp3217
a(I37
I2
I222
I237
I40
tp3218
a(I218
I6
I103
I255
I43
tp3219
a(I218
I5
I102
I237
I40
tp3220
a(I218
I4
I101
I238
I39
tp3221
a(I218
I3
I100
I238
I39
tp3222
a(I218
I2
I99
I238
I39
tp3223
a(I218
I1
I98
I238
I39
tp3224
a(I218
I0
I97
I238
I39
tp3225
a(I293
I0
I96
I238
I39
tp3226
a(I293
I1
I95
I238
I39
tp3227
a(I293
I2
I94
I238
I39
tp3228
a(I293
I3
I93
I238
I39
tp3229
a(I293
I4
I92
I238
I39
tp3230
a(I293
I5
I91
I238
I39
tp3231
a(I293
I6
I90
I238
I39
tp3232
a(I293
I7
I89
I238
I39
tp3233
a(I293
I8
I88
I238
I39
tp3234
a(I293
I9
I87
I238
I39
tp3235
a(I293
I10
I86
I238
I39
tp3236
a(I293
I11
I85
I238
I39
tp3237
a(I293
I12
I84
I238
I39
tp3238
a(I293
I13
I83
I238
I39
tp3239
a(I293
I14
I82
I238
I39
tp3240
a(I293
I15
I81
I238
I39
tp3241
a(I293
I16
I80
I238
I39
tp3242
a(I293
I17
I79
I238
I39
tp3243
a(I293
I18
I78
I238
I39
tp3244
a(I293
I19
I77
I238
I39
tp3245
a(I293
I20
I76
I238
I39
tp3246
a(I293
I21
I75
I238
I39
tp3247
a(I293
I22
I74
I238
I39
tp3248
a(I293
I23
I73
I238
I39
tp3249
a(I293
I24
I72
I238
I39
tp3250
a(I293
I25
I71
I238
I39
tp3251
a(I293
I26
I70
I237
I39
tp3252
a(I293
I27
I69
I236
I38
tp3253
a(I293
I28
I68
I255
I36
tp3254
a(I474
I11
I44
I21
I85
tp3255
a(I474
I10
I43
I21
I81
tp3256
a(I474
I9
I42
I21
I81
tp3257
a(I474
I8
I41
I21
I81
tp3258
a(I474
I7
I40
I21
I81
tp3259
a(I474
I6
I39
I21
I81
tp3260
a(I38
I1
I223
I238
I38
tp3261
a(I217
I3
I100
I255
I0
tp3262
a(I217
I2
I99
I240
I39
tp3263
a(I217
I1
I98
I239
I40
tp3264
a(I217
I0
I97
I237
I38
tp3265
a(I294
I0
I96
I238
I39
tp3266
a(I294
I1
I95
I238
I39
tp3267
a(I294
I2
I94
I238
I39
tp3268
a(I294
I3
I93
I238
I39
tp3269
a(I294
I4
I92
I238
I39
tp3270
a(I294
I5
I91
I238
I39
tp3271
a(I294
I6
I90
I238
I39
tp3272
a(I294
I7
I89
I238
I39
tp3273
a(I294
I8
I88
I238
I39
tp3274
a(I294
I9
I87
I238
I39
tp3275
a(I294
I10
I86
I238
I39
tp3276
a(I294
I11
I85
I238
I39
tp3277
a(I294
I12
I84
I238
I39
tp3278
a(I294
I13
I83
I238
I39
tp3279
a(I294
I14
I82
I238
I39
tp3280
a(I294
I15
I81
I238
I39
tp3281
a(I294
I16
I80
I238
I39
tp3282
a(I294
I17
I79
I238
I39
tp3283
a(I294
I18
I78
I238
I39
tp3284
a(I294
I19
I77
I238
I39
tp3285
a(I294
I20
I76
I238
I39
tp3286
a(I294
I21
I75
I238
I40
tp3287
a(I294
I22
I74
I238
I39
tp3288
a(I294
I23
I73
I238
I38
tp3289
a(I294
I24
I72
I255
I36
tp3290
a(I473
I11
I44
I21
I78
tp3291
a(I473
I10
I43
I21
I81
tp3292
a(I473
I9
I42
I21
I81
tp3293
a(I473
I8
I41
I21
I81
tp3294
a(I473
I7
I40
I21
I81
tp3295
a(I473
I6
I39
I21
I81
tp3296
a(I39
I0
I224
I234
I43
tp3297
a(I39
I1
I223
I255
I51
tp3298
a(I295
I1
I95
I227
I28
tp3299
a(I295
I2
I94
I236
I38
tp3300
a(I295
I3
I93
I239
I40
tp3301
a(I295
I4
I92
I238
I38
tp3302
a(I295
I5
I91
I237
I39
tp3303
a(I295
I6
I90
I238
I40
tp3304
a(I295
I7
I89
I238
I39
tp3305
a(I295
I8
I88
I238
I39
tp3306
a(I295
I9
I87
I238
I39
tp3307
a(I295
I10
I86
I238
I39
tp3308
a(I295
I11
I85
I238
I39
tp3309
a(I295
I12
I84
I238
I40
tp3310
a(I295
I13
I83
I238
I40
tp3311
a(I295
I14
I82
I239
I40
tp3312
a(I295
I15
I81
I238
I39
tp3313
a(I295
I16
I80
I239
I40
tp3314
a(I295
I17
I79
I238
I38
tp3315
a(I295
I18
I78
I240
I36
tp3316
a(I295
I19
I77
I255
I0
tp3317
a(I472
I11
I44
I22
I82
tp3318
a(I472
I10
I43
I21
I81
tp3319
a(I472
I9
I42
I21
I81
tp3320
a(I472
I8
I41
I21
I81
tp3321
a(I472
I7
I40
I21
I81
tp3322
a(I472
I6
I39
I21
I81
tp3323
a(I40
I0
I224
I255
I64
tp3324
a(I471
I11
I44
I22
I80
tp3325
a(I471
I10
I43
I21
I81
tp3326
a(I471
I9
I42
I21
I81
tp3327
a(I471
I8
I41
I21
I81
tp3328
a(I471
I7
I40
I21
I81
tp3329
a(I471
I6
I39
I21
I81
tp3330
a(I470
I11
I44
I22
I80
tp3331
a(I470
I10
I43
I21
I81
tp3332
a(I470
I9
I42
I21
I81
tp3333
a(I470
I8
I41
I21
I81
tp3334
a(I470
I7
I40
I21
I81
tp3335
a(I470
I6
I39
I20
I82
tp3336
a(I469
I11
I44
I21
I81
tp3337
a(I469
I10
I43
I21
I81
tp3338
a(I469
I9
I42
I21
I81
tp3339
a(I469
I8
I41
I21
I81
tp3340
a(I469
I7
I40
I21
I81
tp3341
a(I469
I6
I39
I20
I80
tp3342
a(I468
I11
I44
I20
I80
tp3343
a(I468
I10
I43
I21
I81
tp3344
a(I468
I9
I42
I21
I81
tp3345
a(I468
I8
I41
I21
I81
tp3346
a(I468
I7
I40
I21
I81
tp3347
a(I468
I6
I39
I20
I80
tp3348
a(I300
I21
I75
I27
I81
tp3349
a(I467
I11
I44
I21
I81
tp3350
a(I467
I10
I43
I21
I81
tp3351
a(I467
I9
I42
I21
I81
tp3352
a(I467
I8
I41
I21
I81
tp3353
a(I467
I7
I40
I21
I81
tp3354
a(I467
I6
I39
I20
I80
tp3355
a(I301
I21
I75
I21
I83
tp3356
a(I466
I11
I44
I20
I81
tp3357
a(I466
I10
I43
I21
I81
tp3358
a(I466
I9
I42
I21
I81
tp3359
a(I466
I8
I41
I21
I81
tp3360
a(I466
I7
I40
I21
I81
tp3361
a(I466
I6
I39
I20
I80
tp3362
a(I302
I21
I75
I22
I83
tp3363
a(I465
I12
I45
I0
I85
tp3364
a(I465
I11
I44
I21
I81
tp3365
a(I465
I10
I43
I21
I81
tp3366
a(I465
I9
I42
I21
I81
tp3367
a(I465
I8
I41
I21
I81
tp3368
a(I465
I7
I40
I21
I81
tp3369
a(I465
I6
I39
I21
I81
tp3370
a(I303
I21
I75
I22
I80
tp3371
a(I464
I12
I45
I18
I79
tp3372
a(I464
I11
I44
I21
I81
tp3373
a(I464
I10
I43
I21
I81
tp3374
a(I464
I9
I42
I21
I81
tp3375
a(I464
I8
I41
I21
I81
tp3376
a(I464
I7
I40
I21
I81
tp3377
a(I464
I6
I39
I21
I81
tp3378
a(I304
I21
I75
I20
I82
tp3379
a(I463
I12
I45
I20
I82
tp3380
a(I463
I11
I44
I21
I81
tp3381
a(I463
I10
I43
I21
I81
tp3382
a(I463
I9
I42
I21
I81
tp3383
a(I463
I8
I41
I21
I81
tp3384
a(I463
I7
I40
I21
I81
tp3385
a(I463
I6
I39
I23
I83
tp3386
a(I305
I21
I75
I21
I81
tp3387
a(I462
I12
I45
I20
I80
tp3388
a(I462
I11
I44
I21
I81
tp3389
a(I462
I10
I43
I21
I81
tp3390
a(I462
I9
I42
I21
I81
tp3391
a(I462
I8
I41
I21
I81
tp3392
a(I462
I7
I40
I21
I81
tp3393
a(I462
I6
I39
I23
I83
tp3394
a(I306
I21
I75
I21
I80
tp3395
a(I461
I12
I45
I22
I80
tp3396
a(I461
I11
I44
I21
I81
tp3397
a(I461
I10
I43
I21
I81
tp3398
a(I461
I9
I42
I21
I81
tp3399
a(I461
I8
I41
I21
I81
tp3400
a(I461
I7
I40
I21
I81
tp3401
a(I461
I6
I39
I20
I80
tp3402
a(I307
I21
I75
I20
I80
tp3403
a(I307
I22
I74
I24
I85
tp3404
a(I460
I12
I45
I21
I82
tp3405
a(I460
I11
I44
I21
I81
tp3406
a(I460
I10
I43
I21
I81
tp3407
a(I460
I9
I42
I21
I81
tp3408
a(I460
I8
I41
I21
I81
tp3409
a(I460
I7
I40
I21
I81
tp3410
a(I460
I6
I39
I20
I80
tp3411
a(I308
I21
I75
I21
I82
tp3412
a(I308
I22
I74
I22
I81
tp3413
a(I459
I12
I45
I21
I81
tp3414
a(I459
I11
I44
I21
I81
tp3415
a(I459
I10
I43
I21
I81
tp3416
a(I459
I9
I42
I21
I81
tp3417
a(I459
I8
I41
I21
I81
tp3418
a(I459
I7
I40
I21
I81
tp3419
a(I459
I6
I39
I22
I80
tp3420
a(I309
I21
I75
I21
I81
tp3421
a(I309
I22
I74
I20
I82
tp3422
a(I458
I13
I46
I0
I102
tp3423
a(I458
I12
I45
I21
I81
tp3424
a(I458
I11
I44
I21
I81
tp3425
a(I458
I10
I43
I21
I81
tp3426
a(I458
I9
I42
I21
I81
tp3427
a(I458
I8
I41
I21
I81
tp3428
a(I458
I7
I40
I21
I81
tp3429
a(I458
I6
I39
I23
I83
tp3430
a(I310
I21
I75
I22
I82
tp3431
a(I310
I22
I74
I20
I82
tp3432
a(I457
I13
I46
I23
I79
tp3433
a(I457
I12
I45
I21
I81
tp3434
a(I457
I11
I44
I21
I81
tp3435
a(I457
I10
I43
I21
I81
tp3436
a(I457
I9
I42
I21
I81
tp3437
a(I457
I8
I41
I21
I81
tp3438
a(I457
I7
I40
I21
I81
tp3439
a(I457
I6
I39
I15
I75
tp3440
a(I311
I21
I75
I20
I81
tp3441
a(I311
I22
I74
I21
I82
tp3442
a(I456
I13
I46
I20
I81
tp3443
a(I456
I12
I45
I21
I81
tp3444
a(I456
I11
I44
I21
I81
tp3445
a(I456
I10
I43
I21
I81
tp3446
a(I456
I9
I42
I21
I81
tp3447
a(I456
I8
I41
I21
I81
tp3448
a(I456
I7
I40
I21
I81
tp3449
a(I456
I6
I39
I0
I85
tp3450
a(I312
I21
I75
I22
I82
tp3451
a(I312
I22
I74
I21
I81
tp3452
a(I312
I23
I73
I0
I0
tp3453
a(I455
I13
I46
I20
I82
tp3454
a(I455
I12
I45
I21
I81
tp3455
a(I455
I11
I44
I21
I81
tp3456
a(I455
I10
I43
I21
I81
tp3457
a(I455
I9
I42
I21
I81
tp3458
a(I455
I8
I41
I21
I81
tp3459
a(I455
I7
I40
I21
I82
tp3460
a(I313
I21
I75
I22
I81
tp3461
a(I313
I22
I74
I21
I81
tp3462
a(I313
I23
I73
I22
I80
tp3463
a(I454
I13
I46
I21
I81
tp3464
a(I454
I12
I45
I21
I81
tp3465
a(I454
I11
I44
I21
I81
tp3466
a(I454
I10
I43
I21
I81
tp3467
a(I454
I9
I42
I21
I81
tp3468
a(I454
I8
I41
I21
I81
tp3469
a(I454
I7
I40
I21
I81
tp3470
a(I314
I21
I75
I20
I80
tp3471
a(I314
I22
I74
I21
I81
tp3472
a(I314
I23
I73
I22
I80
tp3473
a(I453
I13
I46
I21
I81
tp3474
a(I453
I12
I45
I21
I81
tp3475
a(I453
I11
I44
I21
I81
tp3476
a(I453
I10
I43
I21
I81
tp3477
a(I453
I9
I42
I21
I81
tp3478
a(I453
I8
I41
I21
I81
tp3479
a(I453
I7
I40
I21
I81
tp3480
a(I315
I21
I75
I20
I80
tp3481
a(I315
I22
I74
I21
I81
tp3482
a(I315
I23
I73
I22
I81
tp3483
a(I452
I14
I47
I19
I85
tp3484
a(I452
I13
I46
I21
I81
tp3485
a(I452
I12
I45
I21
I81
tp3486
a(I452
I11
I44
I21
I81
tp3487
a(I452
I10
I43
I21
I81
tp3488
a(I452
I9
I42
I21
I81
tp3489
a(I452
I8
I41
I21
I81
tp3490
a(I452
I7
I40
I21
I81
tp3491
a(I195
I3
I100
I15
I75
tp3492
a(I195
I2
I99
I21
I80
tp3493
a(I195
I1
I98
I21
I81
tp3494
a(I195
I0
I97
I20
I82
tp3495
a(I316
I0
I96
I22
I81
tp3496
a(I316
I1
I95
I20
I82
tp3497
a(I316
I21
I75
I21
I81
tp3498
a(I316
I22
I74
I21
I81
tp3499
a(I316
I23
I73
I21
I81
tp3500
a(I451
I14
I47
I22
I80
tp3501
a(I451
I13
I46
I21
I81
tp3502
a(I451
I12
I45
I21
I81
tp3503
a(I451
I11
I44
I21
I81
tp3504
a(I451
I10
I43
I21
I81
tp3505
a(I451
I9
I42
I21
I81
tp3506
a(I451
I8
I41
I21
I81
tp3507
a(I451
I7
I40
I20
I80
tp3508
a(I194
I4
I101
I19
I80
tp3509
a(I194
I3
I100
I21
I81
tp3510
a(I194
I2
I99
I21
I81
tp3511
a(I194
I1
I98
I21
I81
tp3512
a(I194
I0
I97
I21
I81
tp3513
a(I317
I0
I96
I21
I81
tp3514
a(I317
I1
I95
I21
I81
tp3515
a(I317
I2
I94
I21
I81
tp3516
a(I317
I3
I93
I0
I85
tp3517
a(I317
I21
I75
I19
I80
tp3518
a(I317
I22
I74
I21
I81
tp3519
a(I317
I23
I73
I21
I81
tp3520
a(I317
I24
I72
I0
I128
tp3521
a(I450
I14
I47
I22
I80
tp3522
a(I450
I13
I46
I21
I81
tp3523
a(I450
I12
I45
I21
I81
tp3524
a(I450
I11
I44
I21
I81
tp3525
a(I450
I10
I43
I21
I81
tp3526
a(I450
I9
I42
I21
I81
tp3527
a(I450
I8
I41
I21
I81
tp3528
a(I450
I7
I40
I21
I81
tp3529
a(I193
I5
I102
I24
I85
tp3530
a(I193
I4
I101
I21
I81
tp3531
a(I193
I3
I100
I21
I81
tp3532
a(I193
I2
I99
I21
I81
tp3533
a(I193
I1
I98
I21
I81
tp3534
a(I193
I0
I97
I21
I81
tp3535
a(I318
I0
I96
I21
I81
tp3536
a(I318
I1
I95
I21
I81
tp3537
a(I318
I2
I94
I21
I81
tp3538
a(I318
I3
I93
I21
I81
tp3539
a(I318
I21
I75
I21
I78
tp3540
a(I318
I22
I74
I21
I81
tp3541
a(I318
I23
I73
I21
I81
tp3542
a(I318
I24
I72
I22
I81
tp3543
a(I449
I14
I47
I21
I81
tp3544
a(I449
I13
I46
I21
I81
tp3545
a(I449
I12
I45
I21
I81
tp3546
a(I449
I11
I44
I21
I81
tp3547
a(I449
I10
I43
I21
I81
tp3548
a(I449
I9
I42
I21
I81
tp3549
a(I449
I8
I41
I21
I81
tp3550
a(I449
I7
I40
I21
I82
tp3551
a(I192
I5
I102
I22
I80
tp3552
a(I192
I4
I101
I21
I81
tp3553
a(I192
I3
I100
I21
I81
tp3554
a(I192
I2
I99
I21
I81
tp3555
a(I192
I1
I98
I21
I81
tp3556
a(I192
I0
I97
I21
I81
tp3557
a(I319
I0
I96
I21
I81
tp3558
a(I319
I1
I95
I21
I81
tp3559
a(I319
I2
I94
I21
I81
tp3560
a(I319
I3
I93
I21
I81
tp3561
a(I319
I4
I92
I21
I85
tp3562
a(I319
I21
I75
I15
I75
tp3563
a(I319
I22
I74
I21
I81
tp3564
a(I319
I23
I73
I21
I81
tp3565
a(I319
I24
I72
I21
I81
tp3566
a(I448
I15
I48
I0
I102
tp3567
a(I448
I14
I47
I21
I81
tp3568
a(I448
I13
I46
I21
I81
tp3569
a(I448
I12
I45
I21
I81
tp3570
a(I448
I11
I44
I21
I81
tp3571
a(I448
I10
I43
I21
I81
tp3572
a(I448
I9
I42
I21
I81
tp3573
a(I448
I8
I41
I21
I81
tp3574
a(I448
I7
I40
I21
I82
tp3575
a(I320
I10
I102
I21
I81
tp3576
a(I320
I11
I101
I21
I81
tp3577
a(I320
I12
I100
I21
I81
tp3578
a(I320
I13
I99
I21
I81
tp3579
a(I320
I14
I98
I21
I81
tp3580
a(I320
I15
I97
I21
I81
tp3581
a(I320
I16
I96
I21
I81
tp3582
a(I320
I17
I95
I21
I81
tp3583
a(I320
I18
I94
I21
I81
tp3584
a(I320
I19
I93
I21
I81
tp3585
a(I320
I20
I92
I21
I81
tp3586
a(I447
I25
I74
I21
I81
tp3587
a(I447
I24
I73
I21
I81
tp3588
a(I447
I23
I72
I21
I81
tp3589
a(I321
I10
I102
I22
I80
tp3590
a(I321
I11
I101
I21
I81
tp3591
a(I321
I12
I100
I21
I81
tp3592
a(I321
I13
I99
I21
I81
tp3593
a(I321
I14
I98
I21
I81
tp3594
a(I321
I15
I97
I21
I81
tp3595
a(I321
I16
I96
I21
I81
tp3596
a(I321
I17
I95
I21
I81
tp3597
a(I321
I18
I94
I21
I81
tp3598
a(I321
I19
I93
I21
I81
tp3599
a(I321
I20
I92
I23
I82
tp3600
a(I446
I25
I74
I21
I81
tp3601
a(I446
I24
I73
I21
I81
tp3602
a(I446
I23
I72
I21
I81
tp3603
a(I446
I22
I71
I19
I81
tp3604
a(I322
I10
I102
I19
I81
tp3605
a(I322
I11
I101
I21
I81
tp3606
a(I322
I12
I100
I21
I81
tp3607
a(I322
I13
I99
I21
I81
tp3608
a(I322
I14
I98
I21
I81
tp3609
a(I322
I15
I97
I21
I81
tp3610
a(I322
I16
I96
I21
I81
tp3611
a(I322
I17
I95
I21
I81
tp3612
a(I322
I18
I94
I21
I81
tp3613
a(I322
I19
I93
I21
I81
tp3614
a(I322
I20
I92
I0
I128
tp3615
a(I445
I25
I74
I21
I81
tp3616
a(I445
I24
I73
I21
I81
tp3617
a(I445
I23
I72
I21
I81
tp3618
a(I445
I22
I71
I21
I81
tp3619
a(I445
I0
I49
I17
I85
tp3620
a(I323
I11
I101
I21
I81
tp3621
a(I323
I12
I100
I21
I81
tp3622
a(I323
I13
I99
I21
I81
tp3623
a(I323
I14
I98
I21
I81
tp3624
a(I323
I15
I97
I21
I81
tp3625
a(I323
I16
I96
I21
I81
tp3626
a(I323
I17
I95
I21
I81
tp3627
a(I323
I18
I94
I21
I81
tp3628
a(I323
I19
I93
I21
I80
tp3629
a(I444
I25
I74
I21
I82
tp3630
a(I444
I24
I73
I21
I81
tp3631
a(I444
I23
I72
I21
I81
tp3632
a(I444
I22
I71
I22
I81
tp3633
a(I444
I0
I49
I22
I81
tp3634
a(I324
I11
I101
I0
I0
tp3635
a(I324
I12
I100
I21
I81
tp3636
a(I324
I13
I99
I21
I81
tp3637
a(I324
I14
I98
I21
I81
tp3638
a(I324
I15
I97
I21
I81
tp3639
a(I324
I16
I96
I21
I81
tp3640
a(I324
I17
I95
I20
I80
tp3641
a(I324
I18
I94
I19
I81
tp3642
a(I443
I25
I74
I21
I80
tp3643
a(I443
I24
I73
I21
I81
tp3644
a(I443
I23
I72
I21
I81
tp3645
a(I443
I22
I71
I21
I81
tp3646
a(I443
I21
I70
I26
I77
tp3647
a(I443
I0
I49
I20
I81
tp3648
a(I325
I13
I99
I0
I128
tp3649
a(I325
I14
I98
I23
I81
tp3650
a(I325
I15
I97
I22
I82
tp3651
a(I325
I16
I96
I22
I78
tp3652
a(I442
I25
I74
I21
I80
tp3653
a(I442
I24
I73
I21
I81
tp3654
a(I442
I23
I72
I21
I81
tp3655
a(I442
I22
I71
I21
I81
tp3656
a(I442
I21
I70
I21
I80
tp3657
a(I442
I1
I50
I0
I85
tp3658
a(I442
I0
I49
I21
I81
tp3659
a(I441
I25
I74
I21
I81
tp3660
a(I441
I24
I73
I21
I81
tp3661
a(I441
I23
I72
I21
I81
tp3662
a(I441
I22
I71
I21
I81
tp3663
a(I441
I21
I70
I21
I81
tp3664
a(I441
I1
I50
I21
I83
tp3665
a(I441
I0
I49
I21
I81
tp3666
a(I440
I25
I74
I20
I82
tp3667
a(I440
I24
I73
I21
I81
tp3668
a(I440
I23
I72
I21
I81
tp3669
a(I440
I22
I71
I21
I81
tp3670
a(I440
I21
I70
I22
I81
tp3671
a(I440
I20
I69
I17
I85
tp3672
a(I440
I1
I50
I21
I82
tp3673
a(I440
I0
I49
I21
I81
tp3674
a(I439
I25
I74
I20
I82
tp3675
a(I439
I24
I73
I21
I81
tp3676
a(I439
I23
I72
I21
I81
tp3677
a(I439
I22
I71
I21
I81
tp3678
a(I439
I21
I70
I21
I81
tp3679
a(I439
I20
I69
I21
I81
tp3680
a(I439
I2
I51
I20
I78
tp3681
a(I439
I1
I50
I21
I81
tp3682
a(I439
I0
I49
I21
I81
tp3683
a(I438
I25
I74
I21
I85
tp3684
a(I438
I24
I73
I21
I81
tp3685
a(I438
I23
I72
I21
I81
tp3686
a(I438
I22
I71
I21
I81
tp3687
a(I438
I21
I70
I21
I81
tp3688
a(I438
I20
I69
I21
I81
tp3689
a(I438
I2
I51
I20
I80
tp3690
a(I438
I1
I50
I21
I81
tp3691
a(I438
I0
I49
I21
I81
tp3692
a(I437
I24
I73
I21
I81
tp3693
a(I437
I23
I72
I21
I81
tp3694
a(I437
I22
I71
I21
I81
tp3695
a(I437
I21
I70
I21
I81
tp3696
a(I437
I20
I69
I21
I81
tp3697
a(I437
I19
I68
I22
I81
tp3698
a(I437
I2
I51
I21
I80
tp3699
a(I437
I1
I50
I21
I81
tp3700
a(I437
I0
I49
I21
I81
tp3701
a(I436
I24
I73
I21
I81
tp3702
a(I436
I23
I72
I21
I81
tp3703
a(I436
I22
I71
I21
I81
tp3704
a(I436
I21
I70
I21
I81
tp3705
a(I436
I20
I69
I21
I81
tp3706
a(I436
I19
I68
I20
I81
tp3707
a(I436
I3
I52
I20
I82
tp3708
a(I436
I2
I51
I21
I81
tp3709
a(I436
I1
I50
I21
I81
tp3710
a(I436
I0
I49
I21
I81
tp3711
a(I435
I24
I73
I20
I80
tp3712
a(I435
I23
I72
I21
I81
tp3713
a(I435
I22
I71
I21
I81
tp3714
a(I435
I21
I70
I21
I81
tp3715
a(I435
I20
I69
I21
I81
tp3716
a(I435
I19
I68
I21
I81
tp3717
a(I435
I18
I67
I23
I83
tp3718
a(I435
I3
I52
I21
I81
tp3719
a(I435
I2
I51
I21
I81
tp3720
a(I435
I1
I50
I21
I81
tp3721
a(I435
I0
I49
I21
I81
tp3722
a(I434
I24
I73
I21
I82
tp3723
a(I434
I23
I72
I21
I81
tp3724
a(I434
I22
I71
I21
I81
tp3725
a(I434
I21
I70
I21
I81
tp3726
a(I434
I20
I69
I21
I81
tp3727
a(I434
I19
I68
I21
I81
tp3728
a(I434
I18
I67
I20
I81
tp3729
a(I434
I4
I53
I23
I83
tp3730
a(I434
I3
I52
I21
I81
tp3731
a(I434
I2
I51
I21
I81
tp3732
a(I434
I1
I50
I21
I81
tp3733
a(I434
I0
I49
I21
I81
tp3734
a(I433
I24
I73
I20
I81
tp3735
a(I433
I23
I72
I21
I81
tp3736
a(I433
I22
I71
I21
I81
tp3737
a(I433
I21
I70
I21
I81
tp3738
a(I433
I20
I69
I21
I81
tp3739
a(I433
I19
I68
I21
I81
tp3740
a(I433
I18
I67
I21
I81
tp3741
a(I433
I17
I66
I23
I82
tp3742
a(I433
I5
I54
I0
I102
tp3743
a(I433
I4
I53
I21
I81
tp3744
a(I433
I3
I52
I21
I81
tp3745
a(I433
I2
I51
I21
I81
tp3746
a(I433
I1
I50
I21
I81
tp3747
a(I433
I0
I49
I21
I81
tp3748
a(I432
I24
I73
I22
I81
tp3749
a(I432
I23
I72
I21
I81
tp3750
a(I432
I22
I71
I21
I81
tp3751
a(I432
I21
I70
I21
I81
tp3752
a(I432
I20
I69
I21
I81
tp3753
a(I432
I19
I68
I21
I81
tp3754
a(I432
I18
I67
I21
I81
tp3755
a(I432
I17
I66
I21
I81
tp3756
a(I432
I16
I65
I32
I96
tp3757
a(I432
I5
I54
I20
I80
tp3758
a(I432
I4
I53
I21
I81
tp3759
a(I432
I3
I52
I21
I81
tp3760
a(I432
I2
I51
I21
I81
tp3761
a(I432
I1
I50
I21
I81
tp3762
a(I432
I0
I49
I21
I81
tp3763
a(I431
I24
I73
I21
I81
tp3764
a(I431
I23
I72
I21
I81
tp3765
a(I431
I22
I71
I21
I81
tp3766
a(I431
I21
I70
I21
I81
tp3767
a(I431
I20
I69
I21
I81
tp3768
a(I431
I19
I68
I21
I81
tp3769
a(I431
I18
I67
I21
I81
tp3770
a(I431
I17
I66
I21
I81
tp3771
a(I431
I16
I65
I21
I81
tp3772
a(I431
I6
I55
I22
I81
tp3773
a(I431
I5
I54
I21
I81
tp3774
a(I431
I4
I53
I21
I81
tp3775
a(I431
I3
I52
I21
I81
tp3776
a(I431
I2
I51
I21
I81
tp3777
a(I431
I1
I50
I21
I81
tp3778
a(I431
I0
I49
I21
I81
tp3779
a(I430
I24
I73
I23
I81
tp3780
a(I430
I23
I72
I21
I81
tp3781
a(I430
I22
I71
I21
I81
tp3782
a(I430
I21
I70
I21
I81
tp3783
a(I430
I20
I69
I21
I81
tp3784
a(I430
I19
I68
I21
I81
tp3785
a(I430
I18
I67
I21
I81
tp3786
a(I430
I17
I66
I21
I81
tp3787
a(I430
I16
I65
I21
I81
tp3788
a(I430
I15
I64
I22
I80
tp3789
a(I430
I7
I56
I22
I81
tp3790
a(I430
I6
I55
I21
I81
tp3791
a(I430
I5
I54
I21
I81
tp3792
a(I430
I4
I53
I21
I81
tp3793
a(I430
I3
I52
I21
I81
tp3794
a(I430
I2
I51
I21
I81
tp3795
a(I430
I1
I50
I21
I81
tp3796
a(I430
I0
I49
I21
I81
tp3797
a(I429
I23
I72
I21
I81
tp3798
a(I429
I22
I71
I21
I81
tp3799
a(I429
I21
I70
I21
I81
tp3800
a(I429
I20
I69
I21
I81
tp3801
a(I429
I19
I68
I21
I81
tp3802
a(I429
I18
I67
I21
I81
tp3803
a(I429
I17
I66
I21
I81
tp3804
a(I429
I16
I65
I21
I81
tp3805
a(I429
I15
I64
I21
I81
tp3806
a(I429
I14
I63
I21
I81
tp3807
a(I429
I13
I62
I36
I73
tp3808
a(I429
I8
I57
I22
I81
tp3809
a(I429
I7
I56
I21
I81
tp3810
a(I429
I6
I55
I21
I81
tp3811
a(I429
I5
I54
I21
I81
tp3812
a(I429
I4
I53
I21
I81
tp3813
a(I429
I3
I52
I21
I81
tp3814
a(I429
I2
I51
I21
I81
tp3815
a(I429
I1
I50
I21
I81
tp3816
a(I429
I0
I49
I21
I81
tp3817
a(I428
I23
I72
I21
I81
tp3818
a(I428
I22
I71
I21
I81
tp3819
a(I428
I21
I70
I21
I81
tp3820
a(I428
I20
I69
I21
I81
tp3821
a(I428
I19
I68
I21
I81
tp3822
a(I428
I18
I67
I21
I81
tp3823
a(I428
I17
I66
I21
I81
tp3824
a(I428
I16
I65
I21
I81
tp3825
a(I428
I15
I64
I21
I81
tp3826
a(I428
I14
I63
I21
I81
tp3827
a(I428
I13
I62
I21
I81
tp3828
a(I428
I12
I61
I21
I81
tp3829
a(I428
I11
I60
I20
I80
tp3830
a(I428
I10
I59
I22
I80
tp3831
a(I428
I9
I58
I21
I80
tp3832
a(I428
I8
I57
I21
I81
tp3833
a(I428
I7
I56
I21
I81
tp3834
a(I428
I6
I55
I21
I81
tp3835
a(I428
I5
I54
I21
I81
tp3836
a(I428
I4
I53
I21
I81
tp3837
a(I428
I3
I52
I21
I81
tp3838
a(I428
I2
I51
I21
I81
tp3839
a(I428
I1
I50
I21
I81
tp3840
a(I428
I0
I49
I21
I81
tp3841
a(I427
I23
I72
I22
I80
tp3842
a(I427
I22
I71
I21
I81
tp3843
a(I427
I21
I70
I21
I81
tp3844
a(I427
I20
I69
I21
I81
tp3845
a(I427
I19
I68
I21
I81
tp3846
a(I427
I18
I67
I21
I81
tp3847
a(I427
I17
I66
I21
I81
tp3848
a(I427
I16
I65
I21
I81
tp3849
a(I427
I15
I64
I21
I81
tp3850
a(I427
I14
I63
I21
I81
tp3851
a(I427
I13
I62
I21
I81
tp3852
a(I427
I12
I61
I21
I81
tp3853
a(I427
I11
I60
I21
I81
tp3854
a(I427
I10
I59
I21
I81
tp3855
a(I427
I9
I58
I21
I81
tp3856
a(I427
I8
I57
I21
I81
tp3857
a(I427
I7
I56
I21
I81
tp3858
a(I427
I6
I55
I21
I81
tp3859
a(I427
I5
I54
I21
I81
tp3860
a(I427
I4
I53
I21
I81
tp3861
a(I427
I3
I52
I21
I81
tp3862
a(I427
I2
I51
I21
I81
tp3863
a(I427
I1
I50
I21
I81
tp3864
a(I427
I0
I49
I21
I81
tp3865
a(I426
I23
I72
I20
I80
tp3866
a(I426
I22
I71
I21
I81
tp3867
a(I426
I21
I70
I21
I81
tp3868
a(I426
I20
I69
I21
I81
tp3869
a(I426
I19
I68
I21
I81
tp3870
a(I426
I18
I67
I21
I81
tp3871
a(I426
I17
I66
I21
I81
tp3872
a(I426
I16
I65
I21
I81
tp3873
a(I426
I15
I64
I21
I81
tp3874
a(I426
I14
I63
I21
I81
tp3875
a(I426
I13
I62
I21
I81
tp3876
a(I426
I12
I61
I21
I81
tp3877
a(I426
I11
I60
I21
I81
tp3878
a(I426
I10
I59
I21
I81
tp3879
a(I426
I9
I58
I21
I81
tp3880
a(I426
I8
I57
I21
I81
tp3881
a(I426
I7
I56
I21
I81
tp3882
a(I426
I6
I55
I21
I81
tp3883
a(I426
I5
I54
I21
I81
tp3884
a(I426
I4
I53
I21
I81
tp3885
a(I426
I3
I52
I21
I81
tp3886
a(I426
I2
I51
I21
I81
tp3887
a(I426
I1
I50
I21
I81
tp3888
a(I426
I0
I49
I21
I81
tp3889
a(I425
I23
I72
I21
I82
tp3890
a(I425
I22
I71
I21
I81
tp3891
a(I425
I21
I70
I21
I81
tp3892
a(I425
I20
I69
I21
I81
tp3893
a(I425
I19
I68
I21
I81
tp3894
a(I425
I18
I67
I21
I81
tp3895
a(I425
I17
I66
I21
I81
tp3896
a(I425
I16
I65
I21
I81
tp3897
a(I425
I15
I64
I21
I81
tp3898
a(I425
I14
I63
I21
I81
tp3899
a(I425
I13
I62
I21
I81
tp3900
a(I425
I12
I61
I21
I81
tp3901
a(I425
I11
I60
I21
I81
tp3902
a(I425
I10
I59
I21
I81
tp3903
a(I425
I9
I58
I21
I81
tp3904
a(I425
I8
I57
I21
I81
tp3905
a(I425
I7
I56
I21
I81
tp3906
a(I425
I6
I55
I21
I81
tp3907
a(I425
I5
I54
I21
I81
tp3908
a(I425
I4
I53
I21
I81
tp3909
a(I425
I3
I52
I21
I81
tp3910
a(I425
I2
I51
I21
I81
tp3911
a(I425
I1
I50
I21
I81
tp3912
a(I425
I0
I49
I21
I81
tp3913
a(I424
I23
I72
I18
I79
tp3914
a(I424
I22
I71
I21
I81
tp3915
a(I424
I21
I70
I21
I81
tp3916
a(I424
I20
I69
I21
I81
tp3917
a(I424
I19
I68
I21
I81
tp3918
a(I424
I18
I67
I21
I81
tp3919
a(I424
I17
I66
I21
I81
tp3920
a(I424
I16
I65
I21
I81
tp3921
a(I424
I15
I64
I21
I81
tp3922
a(I424
I14
I63
I21
I81
tp3923
a(I424
I13
I62
I21
I81
tp3924
a(I424
I12
I61
I21
I81
tp3925
a(I424
I11
I60
I21
I81
tp3926
a(I424
I10
I59
I21
I81
tp3927
a(I424
I9
I58
I21
I81
tp3928
a(I424
I8
I57
I21
I81
tp3929
a(I424
I7
I56
I21
I81
tp3930
a(I424
I6
I55
I21
I81
tp3931
a(I424
I5
I54
I21
I81
tp3932
a(I424
I4
I53
I21
I81
tp3933
a(I424
I3
I52
I21
I81
tp3934
a(I424
I2
I51
I21
I81
tp3935
a(I424
I1
I50
I21
I81
tp3936
a(I424
I0
I49
I21
I81
tp3937
a(I423
I23
I72
I0
I64
tp3938
a(I423
I22
I71
I21
I81
tp3939
a(I423
I21
I70
I21
I81
tp3940
a(I423
I20
I69
I21
I81
tp3941
a(I423
I19
I68
I21
I81
tp3942
a(I423
I18
I67
I21
I81
tp3943
a(I423
I17
I66
I21
I81
tp3944
a(I423
I16
I65
I21
I81
tp3945
a(I423
I15
I64
I21
I81
tp3946
a(I423
I14
I63
I21
I81
tp3947
a(I423
I13
I62
I21
I81
tp3948
a(I423
I12
I61
I21
I81
tp3949
a(I423
I11
I60
I21
I81
tp3950
a(I423
I10
I59
I21
I81
tp3951
a(I423
I9
I58
I21
I81
tp3952
a(I423
I8
I57
I21
I81
tp3953
a(I423
I7
I56
I21
I81
tp3954
a(I423
I6
I55
I21
I81
tp3955
a(I423
I5
I54
I21
I81
tp3956
a(I423
I4
I53
I21
I81
tp3957
a(I423
I3
I52
I21
I81
tp3958
a(I423
I2
I51
I21
I81
tp3959
a(I423
I1
I50
I21
I81
tp3960
a(I423
I0
I49
I21
I81
tp3961
a(I422
I22
I71
I21
I80
tp3962
a(I422
I21
I70
I21
I81
tp3963
a(I422
I20
I69
I21
I81
tp3964
a(I422
I19
I68
I21
I81
tp3965
a(I422
I18
I67
I21
I81
tp3966
a(I422
I17
I66
I21
I81
tp3967
a(I422
I16
I65
I21
I81
tp3968
a(I422
I15
I64
I21
I81
tp3969
a(I422
I14
I63
I21
I81
tp3970
a(I422
I13
I62
I21
I81
tp3971
a(I422
I12
I61
I21
I81
tp3972
a(I422
I11
I60
I21
I81
tp3973
a(I422
I10
I59
I21
I81
tp3974
a(I422
I9
I58
I21
I81
tp3975
a(I422
I8
I57
I21
I81
tp3976
a(I422
I7
I56
I21
I81
tp3977
a(I422
I6
I55
I21
I81
tp3978
a(I422
I5
I54
I21
I81
tp3979
a(I422
I4
I53
I21
I81
tp3980
a(I422
I3
I52
I21
I81
tp3981
a(I422
I2
I51
I21
I81
tp3982
a(I422
I1
I50
I21
I81
tp3983
a(I422
I0
I49
I21
I81
tp3984
a(I421
I22
I71
I21
I81
tp3985
a(I421
I21
I70
I21
I81
tp3986
a(I421
I20
I69
I21
I81
tp3987
a(I421
I19
I68
I21
I81
tp3988
a(I421
I18
I67
I21
I81
tp3989
a(I421
I17
I66
I21
I81
tp3990
a(I421
I16
I65
I21
I81
tp3991
a(I421
I15
I64
I21
I81
tp3992
a(I421
I14
I63
I21
I81
tp3993
a(I421
I13
I62
I21
I81
tp3994
a(I421
I12
I61
I21
I81
tp3995
a(I421
I11
I60
I21
I81
tp3996
a(I421
I10
I59
I21
I81
tp3997
a(I421
I9
I58
I21
I81
tp3998
a(I421
I8
I57
I21
I81
tp3999
a(I421
I7
I56
I21
I81
tp4000
a(I421
I6
I55
I21
I81
tp4001
a(I421
I5
I54
I21
I81
tp4002
a(I421
I4
I53
I21
I81
tp4003
a(I421
I3
I52
I21
I81
tp4004
a(I421
I2
I51
I21
I81
tp4005
a(I421
I1
I50
I21
I81
tp4006
a(I421
I0
I49
I21
I81
tp4007
a(I420
I22
I71
I22
I81
tp4008
a(I420
I21
I70
I21
I81
tp4009
a(I420
I20
I69
I21
I81
tp4010
a(I420
I19
I68
I21
I81
tp4011
a(I420
I18
I67
I21
I81
tp4012
a(I420
I17
I66
I21
I81
tp4013
a(I420
I16
I65
I21
I81
tp4014
a(I420
I15
I64
I21
I81
tp4015
a(I420
I14
I63
I21
I81
tp4016
a(I420
I13
I62
I21
I81
tp4017
a(I420
I12
I61
I21
I81
tp4018
a(I420
I11
I60
I21
I81
tp4019
a(I420
I10
I59
I21
I81
tp4020
a(I420
I9
I58
I21
I81
tp4021
a(I420
I8
I57
I21
I81
tp4022
a(I420
I7
I56
I21
I81
tp4023
a(I420
I6
I55
I21
I81
tp4024
a(I420
I5
I54
I21
I81
tp4025
a(I420
I4
I53
I21
I81
tp4026
a(I420
I3
I52
I21
I81
tp4027
a(I420
I2
I51
I21
I81
tp4028
a(I420
I1
I50
I21
I81
tp4029
a(I420
I0
I49
I21
I81
tp4030
a(I419
I22
I71
I19
I81
tp4031
a(I419
I21
I70
I21
I81
tp4032
a(I419
I20
I69
I21
I81
tp4033
a(I419
I19
I68
I21
I81
tp4034
a(I419
I18
I67
I21
I81
tp4035
a(I419
I17
I66
I21
I81
tp4036
a(I419
I16
I65
I21
I81
tp4037
a(I419
I15
I64
I21
I81
tp4038
a(I419
I14
I63
I21
I81
tp4039
a(I419
I13
I62
I21
I81
tp4040
a(I419
I12
I61
I21
I81
tp4041
a(I419
I11
I60
I21
I81
tp4042
a(I419
I10
I59
I21
I81
tp4043
a(I419
I9
I58
I21
I81
tp4044
a(I419
I8
I57
I21
I81
tp4045
a(I419
I7
I56
I21
I81
tp4046
a(I419
I6
I55
I21
I81
tp4047
a(I419
I5
I54
I21
I81
tp4048
a(I419
I4
I53
I21
I81
tp4049
a(I419
I3
I52
I21
I81
tp4050
a(I419
I2
I51
I21
I81
tp4051
a(I419
I1
I50
I21
I81
tp4052
a(I419
I0
I49
I21
I81
tp4053
a(I418
I22
I71
I18
I73
tp4054
a(I418
I21
I70
I21
I81
tp4055
a(I418
I20
I69
I21
I81
tp4056
a(I418
I19
I68
I21
I81
tp4057
a(I418
I18
I67
I21
I81
tp4058
a(I418
I17
I66
I21
I81
tp4059
a(I418
I16
I65
I21
I81
tp4060
a(I418
I15
I64
I21
I81
tp4061
a(I418
I14
I63
I21
I81
tp4062
a(I418
I13
I62
I21
I81
tp4063
a(I418
I12
I61
I21
I81
tp4064
a(I418
I11
I60
I21
I81
tp4065
a(I418
I10
I59
I21
I81
tp4066
a(I418
I9
I58
I21
I81
tp4067
a(I418
I8
I57
I21
I81
tp4068
a(I418
I7
I56
I21
I81
tp4069
a(I418
I6
I55
I21
I81
tp4070
a(I418
I5
I54
I21
I81
tp4071
a(I418
I4
I53
I21
I81
tp4072
a(I418
I3
I52
I21
I81
tp4073
a(I418
I2
I51
I21
I81
tp4074
a(I418
I1
I50
I21
I81
tp4075
a(I418
I0
I49
I21
I81
tp4076
a(I417
I21
I70
I20
I81
tp4077
a(I417
I20
I69
I21
I81
tp4078
a(I417
I19
I68
I21
I81
tp4079
a(I417
I18
I67
I21
I81
tp4080
a(I417
I17
I66
I21
I81
tp4081
a(I417
I16
I65
I21
I81
tp4082
a(I417
I15
I64
I21
I81
tp4083
a(I417
I14
I63
I21
I81
tp4084
a(I417
I13
I62
I21
I81
tp4085
a(I417
I12
I61
I21
I81
tp4086
a(I417
I11
I60
I21
I81
tp4087
a(I417
I10
I59
I21
I81
tp4088
a(I417
I9
I58
I21
I81
tp4089
a(I417
I8
I57
I21
I81
tp4090
a(I417
I7
I56
I21
I81
tp4091
a(I417
I6
I55
I21
I81
tp4092
a(I417
I5
I54
I21
I81
tp4093
a(I417
I4
I53
I21
I81
tp4094
a(I417
I3
I52
I21
I81
tp4095
a(I417
I2
I51
I21
I81
tp4096
a(I417
I1
I50
I21
I81
tp4097
a(I417
I0
I49
I21
I81
tp4098
a(I416
I21
I70
I21
I81
tp4099
a(I416
I20
I69
I21
I81
tp4100
a(I416
I19
I68
I21
I81
tp4101
a(I416
I18
I67
I21
I81
tp4102
a(I416
I17
I66
I21
I81
tp4103
a(I416
I16
I65
I21
I81
tp4104
a(I416
I15
I64
I21
I81
tp4105
a(I416
I14
I63
I21
I81
tp4106
a(I416
I13
I62
I21
I81
tp4107
a(I416
I12
I61
I21
I81
tp4108
a(I416
I11
I60
I21
I81
tp4109
a(I416
I10
I59
I21
I81
tp4110
a(I416
I9
I58
I21
I81
tp4111
a(I416
I8
I57
I21
I81
tp4112
a(I416
I7
I56
I21
I81
tp4113
a(I416
I6
I55
I21
I81
tp4114
a(I416
I5
I54
I21
I81
tp4115
a(I416
I4
I53
I21
I81
tp4116
a(I416
I3
I52
I21
I81
tp4117
a(I416
I2
I51
I21
I81
tp4118
a(I416
I1
I50
I21
I81
tp4119
a(I416
I0
I49
I21
I81
tp4120
a(I415
I21
I70
I20
I82
tp4121
a(I415
I20
I69
I21
I81
tp4122
a(I415
I19
I68
I21
I81
tp4123
a(I415
I18
I67
I21
I81
tp4124
a(I415
I17
I66
I21
I81
tp4125
a(I415
I16
I65
I21
I81
tp4126
a(I415
I15
I64
I21
I81
tp4127
a(I415
I14
I63
I21
I81
tp4128
a(I415
I13
I62
I21
I81
tp4129
a(I415
I12
I61
I21
I81
tp4130
a(I415
I11
I60
I21
I81
tp4131
a(I415
I10
I59
I21
I81
tp4132
a(I415
I9
I58
I21
I81
tp4133
a(I415
I8
I57
I21
I81
tp4134
a(I415
I7
I56
I21
I81
tp4135
a(I415
I6
I55
I21
I81
tp4136
a(I415
I5
I54
I21
I81
tp4137
a(I415
I4
I53
I21
I81
tp4138
a(I415
I3
I52
I21
I81
tp4139
a(I415
I2
I51
I21
I81
tp4140
a(I415
I1
I50
I21
I81
tp4141
a(I415
I0
I49
I21
I81
tp4142
a(I414
I21
I70
I22
I81
tp4143
a(I414
I20
I69
I21
I81
tp4144
a(I414
I19
I68
I21
I81
tp4145
a(I414
I18
I67
I21
I81
tp4146
a(I414
I17
I66
I21
I81
tp4147
a(I414
I16
I65
I21
I81
tp4148
a(I414
I15
I64
I21
I81
tp4149
a(I414
I14
I63
I21
I81
tp4150
a(I414
I13
I62
I21
I81
tp4151
a(I414
I12
I61
I21
I81
tp4152
a(I414
I11
I60
I21
I81
tp4153
a(I414
I10
I59
I21
I81
tp4154
a(I414
I9
I58
I21
I81
tp4155
a(I414
I8
I57
I21
I81
tp4156
a(I414
I7
I56
I21
I81
tp4157
a(I414
I6
I55
I21
I81
tp4158
a(I414
I5
I54
I21
I81
tp4159
a(I414
I4
I53
I21
I81
tp4160
a(I414
I3
I52
I21
I81
tp4161
a(I414
I2
I51
I21
I81
tp4162
a(I414
I1
I50
I21
I81
tp4163
a(I414
I0
I49
I21
I81
tp4164
a(I413
I21
I70
I0
I128
tp4165
a(I413
I20
I69
I22
I81
tp4166
a(I413
I19
I68
I21
I81
tp4167
a(I413
I18
I67
I21
I81
tp4168
a(I413
I17
I66
I21
I81
tp4169
a(I413
I16
I65
I21
I81
tp4170
a(I413
I15
I64
I21
I81
tp4171
a(I413
I14
I63
I21
I81
tp4172
a(I413
I13
I62
I21
I81
tp4173
a(I413
I12
I61
I21
I81
tp4174
a(I413
I11
I60
I21
I81
tp4175
a(I413
I10
I59
I21
I81
tp4176
a(I413
I9
I58
I21
I81
tp4177
a(I413
I8
I57
I21
I81
tp4178
a(I413
I7
I56
I21
I81
tp4179
a(I413
I6
I55
I21
I81
tp4180
a(I413
I5
I54
I21
I81
tp4181
a(I413
I4
I53
I21
I81
tp4182
a(I413
I3
I52
I21
I81
tp4183
a(I413
I2
I51
I21
I81
tp4184
a(I413
I1
I50
I21
I81
tp4185
a(I413
I0
I49
I21
I81
tp4186
a(I412
I20
I69
I21
I81
tp4187
a(I412
I19
I68
I21
I81
tp4188
a(I412
I18
I67
I21
I81
tp4189
a(I412
I17
I66
I21
I81
tp4190
a(I412
I16
I65
I21
I81
tp4191
a(I412
I15
I64
I21
I81
tp4192
a(I412
I14
I63
I21
I81
tp4193
a(I412
I13
I62
I21
I81
tp4194
a(I412
I12
I61
I21
I81
tp4195
a(I412
I11
I60
I21
I81
tp4196
a(I412
I10
I59
I21
I81
tp4197
a(I412
I9
I58
I21
I81
tp4198
a(I412
I8
I57
I21
I81
tp4199
a(I412
I7
I56
I21
I81
tp4200
a(I412
I6
I55
I21
I81
tp4201
a(I412
I5
I54
I21
I81
tp4202
a(I412
I4
I53
I21
I81
tp4203
a(I412
I3
I52
I21
I81
tp4204
a(I412
I2
I51
I21
I81
tp4205
a(I412
I1
I50
I21
I81
tp4206
a(I412
I0
I49
I21
I81
tp4207
a(I411
I20
I69
I21
I82
tp4208
a(I411
I19
I68
I21
I81
tp4209
a(I411
I18
I67
I21
I81
tp4210
a(I411
I17
I66
I21
I81
tp4211
a(I411
I16
I65
I21
I81
tp4212
a(I411
I15
I64
I21
I81
tp4213
a(I411
I14
I63
I21
I81
tp4214
a(I411
I13
I62
I21
I81
tp4215
a(I411
I12
I61
I21
I81
tp4216
a(I411
I11
I60
I21
I81
tp4217
a(I411
I10
I59
I21
I81
tp4218
a(I411
I9
I58
I21
I81
tp4219
a(I411
I8
I57
I21
I81
tp4220
a(I411
I7
I56
I21
I81
tp4221
a(I411
I6
I55
I21
I81
tp4222
a(I411
I5
I54
I21
I81
tp4223
a(I411
I4
I53
I21
I81
tp4224
a(I411
I3
I52
I21
I81
tp4225
a(I411
I2
I51
I21
I81
tp4226
a(I411
I1
I50
I21
I81
tp4227
a(I411
I0
I49
I21
I81
tp4228
a(I410
I20
I69
I24
I83
tp4229
a(I410
I19
I68
I21
I81
tp4230
a(I410
I18
I67
I21
I81
tp4231
a(I410
I17
I66
I21
I81
tp4232
a(I410
I16
I65
I21
I81
tp4233
a(I410
I15
I64
I21
I81
tp4234
a(I410
I14
I63
I21
I81
tp4235
a(I410
I13
I62
I21
I81
tp4236
a(I410
I12
I61
I21
I81
tp4237
a(I410
I11
I60
I21
I81
tp4238
a(I410
I10
I59
I21
I81
tp4239
a(I410
I9
I58
I21
I81
tp4240
a(I410
I8
I57
I21
I81
tp4241
a(I410
I7
I56
I21
I81
tp4242
a(I410
I6
I55
I21
I81
tp4243
a(I410
I5
I54
I21
I81
tp4244
a(I410
I4
I53
I21
I81
tp4245
a(I410
I3
I52
I21
I81
tp4246
a(I410
I2
I51
I21
I81
tp4247
a(I410
I1
I50
I21
I81
tp4248
a(I410
I0
I49
I21
I81
tp4249
a(I409
I20
I69
I0
I0
tp4250
a(I409
I19
I68
I21
I81
tp4251
a(I409
I18
I67
I21
I81
tp4252
a(I409
I17
I66
I21
I81
tp4253
a(I409
I16
I65
I21
I81
tp4254
a(I409
I15
I64
I21
I81
tp4255
a(I409
I14
I63
I21
I81
tp4256
a(I409
I13
I62
I21
I81
tp4257
a(I409
I12
I61
I21
I81
tp4258
a(I409
I11
I60
I21
I81
tp4259
a(I409
I10
I59
I21
I81
tp4260
a(I409
I9
I58
I21
I81
tp4261
a(I409
I8
I57
I21
I81
tp4262
a(I409
I7
I56
I21
I81
tp4263
a(I409
I6
I55
I21
I81
tp4264
a(I409
I5
I54
I21
I81
tp4265
a(I409
I4
I53
I21
I81
tp4266
a(I409
I3
I52
I21
I81
tp4267
a(I409
I2
I51
I21
I81
tp4268
a(I409
I1
I50
I21
I81
tp4269
a(I409
I0
I49
I21
I81
tp4270
a(I408
I19
I68
I22
I81
tp4271
a(I408
I18
I67
I21
I81
tp4272
a(I408
I17
I66
I21
I81
tp4273
a(I408
I16
I65
I21
I81
tp4274
a(I408
I15
I64
I21
I81
tp4275
a(I408
I14
I63
I21
I81
tp4276
a(I408
I13
I62
I21
I81
tp4277
a(I408
I12
I61
I21
I81
tp4278
a(I408
I11
I60
I21
I81
tp4279
a(I408
I10
I59
I21
I81
tp4280
a(I408
I9
I58
I21
I81
tp4281
a(I408
I8
I57
I21
I81
tp4282
a(I408
I7
I56
I21
I81
tp4283
a(I408
I6
I55
I21
I81
tp4284
a(I408
I5
I54
I21
I81
tp4285
a(I408
I4
I53
I21
I81
tp4286
a(I408
I3
I52
I21
I81
tp4287
a(I408
I2
I51
I21
I81
tp4288
a(I408
I1
I50
I21
I81
tp4289
a(I408
I0
I49
I21
I81
tp4290
a(I407
I19
I68
I20
I82
tp4291
a(I407
I18
I67
I21
I81
tp4292
a(I407
I17
I66
I21
I81
tp4293
a(I407
I16
I65
I21
I81
tp4294
a(I407
I15
I64
I21
I81
tp4295
a(I407
I14
I63
I21
I81
tp4296
a(I407
I13
I62
I21
I81
tp4297
a(I407
I12
I61
I21
I81
tp4298
a(I407
I11
I60
I21
I81
tp4299
a(I407
I10
I59
I21
I81
tp4300
a(I407
I9
I58
I21
I81
tp4301
a(I407
I8
I57
I21
I81
tp4302
a(I407
I7
I56
I21
I81
tp4303
a(I407
I6
I55
I21
I81
tp4304
a(I407
I5
I54
I21
I81
tp4305
a(I407
I4
I53
I21
I81
tp4306
a(I407
I3
I52
I21
I81
tp4307
a(I407
I2
I51
I21
I81
tp4308
a(I407
I1
I50
I21
I81
tp4309
a(I407
I0
I49
I21
I81
tp4310
a(I406
I19
I68
I32
I96
tp4311
a(I406
I18
I67
I21
I81
tp4312
a(I406
I17
I66
I21
I81
tp4313
a(I406
I16
I65
I21
I81
tp4314
a(I406
I15
I64
I21
I81
tp4315
a(I406
I14
I63
I21
I81
tp4316
a(I406
I13
I62
I21
I81
tp4317
a(I406
I12
I61
I21
I81
tp4318
a(I406
I11
I60
I21
I81
tp4319
a(I406
I10
I59
I21
I81
tp4320
a(I406
I9
I58
I21
I81
tp4321
a(I406
I8
I57
I21
I81
tp4322
a(I406
I7
I56
I21
I81
tp4323
a(I406
I6
I55
I21
I81
tp4324
a(I406
I5
I54
I21
I81
tp4325
a(I406
I4
I53
I21
I81
tp4326
a(I406
I3
I52
I21
I81
tp4327
a(I406
I2
I51
I21
I81
tp4328
a(I406
I1
I50
I21
I81
tp4329
a(I406
I0
I49
I21
I81
tp4330
a(I405
I18
I67
I21
I81
tp4331
a(I405
I17
I66
I21
I81
tp4332
a(I405
I16
I65
I21
I81
tp4333
a(I405
I15
I64
I21
I81
tp4334
a(I405
I14
I63
I21
I81
tp4335
a(I405
I13
I62
I21
I81
tp4336
a(I405
I12
I61
I21
I81
tp4337
a(I405
I11
I60
I21
I81
tp4338
a(I405
I10
I59
I21
I81
tp4339
a(I405
I9
I58
I21
I81
tp4340
a(I405
I8
I57
I21
I81
tp4341
a(I405
I7
I56
I21
I81
tp4342
a(I405
I6
I55
I21
I81
tp4343
a(I405
I5
I54
I21
I81
tp4344
a(I405
I4
I53
I21
I81
tp4345
a(I405
I3
I52
I21
I81
tp4346
a(I405
I2
I51
I21
I81
tp4347
a(I405
I1
I50
I21
I81
tp4348
a(I405
I0
I49
I21
I81
tp4349
a(I404
I18
I67
I22
I80
tp4350
a(I404
I17
I66
I21
I81
tp4351
a(I404
I16
I65
I21
I81
tp4352
a(I404
I15
I64
I21
I81
tp4353
a(I404
I14
I63
I21
I81
tp4354
a(I404
I13
I62
I21
I81
tp4355
a(I404
I12
I61
I21
I81
tp4356
a(I404
I11
I60
I21
I81
tp4357
a(I404
I10
I59
I21
I81
tp4358
a(I404
I9
I58
I21
I81
tp4359
a(I404
I8
I57
I21
I81
tp4360
a(I404
I7
I56
I21
I81
tp4361
a(I404
I6
I55
I21
I81
tp4362
a(I404
I5
I54
I21
I81
tp4363
a(I404
I4
I53
I21
I81
tp4364
a(I404
I3
I52
I21
I81
tp4365
a(I404
I2
I51
I21
I81
tp4366
a(I404
I1
I50
I21
I81
tp4367
a(I404
I0
I49
I21
I81
tp4368
a(I403
I18
I67
I0
I85
tp4369
a(I403
I17
I66
I21
I81
tp4370
a(I403
I16
I65
I21
I81
tp4371
a(I403
I15
I64
I21
I81
tp4372
a(I403
I14
I63
I21
I81
tp4373
a(I403
I13
I62
I21
I81
tp4374
a(I403
I12
I61
I21
I81
tp4375
a(I403
I11
I60
I21
I81
tp4376
a(I403
I10
I59
I21
I81
tp4377
a(I403
I9
I58
I21
I81
tp4378
a(I403
I8
I57
I21
I81
tp4379
a(I403
I7
I56
I21
I81
tp4380
a(I403
I6
I55
I21
I81
tp4381
a(I403
I5
I54
I21
I81
tp4382
a(I403
I4
I53
I21
I81
tp4383
a(I403
I3
I52
I21
I81
tp4384
a(I403
I2
I51
I21
I81
tp4385
a(I403
I1
I50
I21
I81
tp4386
a(I403
I0
I49
I21
I81
tp4387
a(I402
I17
I66
I21
I81
tp4388
a(I402
I16
I65
I21
I81
tp4389
a(I402
I15
I64
I21
I81
tp4390
a(I402
I14
I63
I21
I81
tp4391
a(I402
I13
I62
I21
I81
tp4392
a(I402
I12
I61
I21
I81
tp4393
a(I402
I11
I60
I21
I81
tp4394
a(I402
I10
I59
I21
I81
tp4395
a(I402
I9
I58
I21
I81
tp4396
a(I402
I8
I57
I21
I81
tp4397
a(I402
I7
I56
I21
I81
tp4398
a(I402
I6
I55
I21
I81
tp4399
a(I402
I5
I54
I21
I81
tp4400
a(I402
I4
I53
I21
I81
tp4401
a(I402
I3
I52
I21
I81
tp4402
a(I402
I2
I51
I21
I81
tp4403
a(I402
I1
I50
I21
I81
tp4404
a(I402
I0
I49
I21
I81
tp4405
a(I401
I17
I66
I22
I81
tp4406
a(I401
I16
I65
I21
I81
tp4407
a(I401
I15
I64
I21
I81
tp4408
a(I401
I14
I63
I21
I81
tp4409
a(I401
I13
I62
I21
I81
tp4410
a(I401
I12
I61
I21
I81
tp4411
a(I401
I11
I60
I21
I81
tp4412
a(I401
I10
I59
I21
I81
tp4413
a(I401
I9
I58
I21
I81
tp4414
a(I401
I8
I57
I21
I81
tp4415
a(I401
I7
I56
I21
I81
tp4416
a(I401
I6
I55
I21
I81
tp4417
a(I401
I5
I54
I21
I81
tp4418
a(I401
I4
I53
I21
I81
tp4419
a(I401
I3
I52
I21
I81
tp4420
a(I401
I2
I51
I21
I81
tp4421
a(I401
I1
I50
I21
I81
tp4422
a(I401
I0
I49
I21
I81
tp4423
a(I400
I16
I65
I22
I81
tp4424
a(I400
I15
I64
I21
I81
tp4425
a(I400
I14
I63
I21
I81
tp4426
a(I400
I13
I62
I21
I81
tp4427
a(I400
I12
I61
I21
I81
tp4428
a(I400
I11
I60
I21
I81
tp4429
a(I400
I10
I59
I21
I81
tp4430
a(I400
I9
I58
I21
I81
tp4431
a(I400
I8
I57
I21
I81
tp4432
a(I400
I7
I56
I21
I81
tp4433
a(I400
I6
I55
I21
I81
tp4434
a(I400
I5
I54
I21
I81
tp4435
a(I400
I4
I53
I21
I81
tp4436
a(I400
I3
I52
I21
I81
tp4437
a(I400
I2
I51
I21
I81
tp4438
a(I400
I1
I50
I21
I81
tp4439
a(I400
I0
I49
I22
I81
tp4440
a(I399
I16
I65
I23
I80
tp4441
a(I399
I15
I64
I21
I81
tp4442
a(I399
I14
I63
I21
I81
tp4443
a(I399
I13
I62
I21
I81
tp4444
a(I399
I12
I61
I21
I81
tp4445
a(I399
I11
I60
I21
I81
tp4446
a(I399
I10
I59
I21
I81
tp4447
a(I399
I9
I58
I21
I81
tp4448
a(I399
I8
I57
I21
I81
tp4449
a(I399
I7
I56
I21
I81
tp4450
a(I399
I6
I55
I21
I81
tp4451
a(I399
I5
I54
I21
I81
tp4452
a(I399
I4
I53
I21
I81
tp4453
a(I399
I3
I52
I21
I81
tp4454
a(I399
I2
I51
I21
I81
tp4455
a(I399
I1
I50
I20
I80
tp4456
a(I398
I15
I64
I20
I82
tp4457
a(I398
I14
I63
I21
I81
tp4458
a(I398
I13
I62
I21
I81
tp4459
a(I398
I12
I61
I21
I81
tp4460
a(I398
I11
I60
I21
I81
tp4461
a(I398
I10
I59
I21
I81
tp4462
a(I398
I9
I58
I21
I81
tp4463
a(I398
I8
I57
I21
I81
tp4464
a(I398
I7
I56
I21
I81
tp4465
a(I398
I6
I55
I21
I81
tp4466
a(I398
I5
I54
I21
I81
tp4467
a(I398
I4
I53
I21
I81
tp4468
a(I398
I3
I52
I21
I81
tp4469
a(I398
I2
I51
I21
I81
tp4470
a(I398
I1
I50
I20
I82
tp4471
a(I397
I15
I64
I21
I82
tp4472
a(I397
I14
I63
I21
I81
tp4473
a(I397
I13
I62
I21
I81
tp4474
a(I397
I12
I61
I21
I81
tp4475
a(I397
I11
I60
I21
I81
tp4476
a(I397
I10
I59
I21
I81
tp4477
a(I397
I9
I58
I21
I81
tp4478
a(I397
I8
I57
I21
I81
tp4479
a(I397
I7
I56
I21
I81
tp4480
a(I397
I6
I55
I21
I81
tp4481
a(I397
I5
I54
I21
I81
tp4482
a(I397
I4
I53
I21
I81
tp4483
a(I397
I3
I52
I21
I81
tp4484
a(I397
I2
I51
I21
I81
tp4485
a(I396
I14
I63
I20
I80
tp4486
a(I396
I13
I62
I21
I81
tp4487
a(I396
I12
I61
I21
I81
tp4488
a(I396
I11
I60
I21
I81
tp4489
a(I396
I10
I59
I21
I81
tp4490
a(I396
I9
I58
I21
I81
tp4491
a(I396
I8
I57
I21
I81
tp4492
a(I396
I7
I56
I21
I81
tp4493
a(I396
I6
I55
I21
I81
tp4494
a(I396
I5
I54
I21
I81
tp4495
a(I396
I4
I53
I21
I81
tp4496
a(I396
I3
I52
I21
I81
tp4497
a(I396
I2
I51
I24
I80
tp4498
a(I395
I14
I63
I26
I77
tp4499
a(I395
I13
I62
I21
I81
tp4500
a(I395
I12
I61
I21
I81
tp4501
a(I395
I11
I60
I21
I81
tp4502
a(I395
I10
I59
I21
I81
tp4503
a(I395
I9
I58
I21
I81
tp4504
a(I395
I8
I57
I21
I81
tp4505
a(I395
I7
I56
I21
I81
tp4506
a(I395
I6
I55
I21
I81
tp4507
a(I395
I5
I54
I21
I81
tp4508
a(I395
I4
I53
I21
I81
tp4509
a(I395
I3
I52
I20
I82
tp4510
a(I394
I13
I62
I23
I79
tp4511
a(I394
I12
I61
I21
I81
tp4512
a(I394
I11
I60
I21
I81
tp4513
a(I394
I10
I59
I21
I81
tp4514
a(I394
I9
I58
I21
I81
tp4515
a(I394
I8
I57
I21
I81
tp4516
a(I394
I7
I56
I21
I81
tp4517
a(I394
I6
I55
I21
I81
tp4518
a(I394
I5
I54
I21
I81
tp4519
a(I394
I4
I53
I21
I81
tp4520
a(I393
I12
I61
I21
I82
tp4521
a(I393
I11
I60
I22
I81
tp4522
a(I393
I10
I59
I21
I81
tp4523
a(I393
I9
I58
I21
I81
tp4524
a(I393
I8
I57
I21
I81
tp4525
a(I393
I7
I56
I21
I81
tp4526
a(I393
I6
I55
I21
I81
tp4527
a(I393
I5
I54
I21
I81
tp4528
a(I393
I4
I53
I0
I85
tp4529
a(I392
I11
I60
I18
I82
tp4530
a(I392
I10
I59
I22
I82
tp4531
a(I392
I9
I58
I21
I81
tp4532
a(I392
I8
I57
I21
I81
tp4533
a(I392
I7
I56
I21
I81
tp4534
a(I392
I6
I55
I22
I81
tp4535
a.