(lp0
(I497
I19
I28
I85
I142
tp1
a(I498
I19
I0
I0
I255
tp2
a(I498
I18
I17
I85
I153
tp3
a(I498
I17
I20
I82
I148
tp4
a(I498
I16
I22
I80
I149
tp5
a(I498
I15
I23
I81
I148
tp6
a(I499
I15
I23
I70
I139
tp7
a(I498
I14
I23
I81
I151
tp8
a(I499
I14
I21
I83
I152
tp9
a(I498
I13
I0
I85
I170
tp10
a(I499
I13
I22
I80
I149
tp11
a(I499
I12
I20
I81
I150
tp12
a(I499
I11
I21
I81
I150
tp13
a(I500
I11
I0
I85
I170
tp14
a(I499
I10
I21
I82
I150
tp15
a(I500
I10
I23
I79
I147
tp16
a(I499
I9
I20
I80
I150
tp17
a(I500
I9
I20
I82
I150
tp18
a(I499
I8
I21
I81
I149
tp19
a(I500
I8
I21
I82
I150
tp20
a(I499
I7
I19
I81
I149
tp21
a(I500
I7
I21
I81
I151
tp22
a(I499
I6
I28
I85
I142
tp23
a(I500
I6
I21
I81
I150
tp24
a(I501
I6
I0
I102
I153
tp25
a(I500
I5
I21
I81
I150
tp26
a(I501
I5
I23
I81
I151
tp27
a(I500
I4
I21
I81
I150
tp28
a(I501
I4
I21
I82
I149
tp29
a(I500
I3
I21
I81
I149
tp30
a(I501
I3
I21
I82
I150
tp31
a(I500
I2
I21
I80
I150
tp32
a(I501
I2
I21
I81
I150
tp33
a(I500
I1
I21
I80
I149
tp34
a(I501
I1
I21
I81
I150
tp35
a(I500
I0
I22
I82
I151
tp36
a(I501
I0
I21
I81
I150
tp37
a(I502
I0
I28
I85
I142
tp38
a(I512
I15
I23
I79
I148
tp39
a(I512
I16
I21
I81
I150
tp40
a(I512
I17
I23
I79
I147
tp41
a(I190
I30
I235
I39
I29
tp42
a(I190
I29
I239
I40
I32
tp43
a(I190
I28
I237
I39
I34
tp44
a(I190
I27
I238
I38
I35
tp45
a(I190
I26
I238
I39
I33
tp46
a(I190
I25
I238
I39
I34
tp47
a(I190
I24
I238
I39
I34
tp48
a(I190
I23
I238
I39
I34
tp49
a(I190
I22
I239
I38
I34
tp50
a(I190
I21
I238
I39
I34
tp51
a(I190
I20
I238
I39
I34
tp52
a(I190
I19
I239
I38
I34
tp53
a(I190
I18
I238
I39
I34
tp54
a(I190
I17
I238
I39
I34
tp55
a(I190
I16
I238
I39
I34
tp56
a(I190
I15
I238
I40
I34
tp57
a(I190
I14
I237
I40
I34
tp58
a(I190
I13
I238
I39
I33
tp59
a(I190
I12
I236
I38
I34
tp60
a(I190
I11
I239
I32
I32
tp61
a(I513
I15
I20
I81
I148
tp62
a(I513
I16
I21
I81
I150
tp63
a(I513
I17
I23
I81
I148
tp64
a(I638
I7
I239
I32
I32
tp65
a(I66
I28
I255
I51
I51
tp66
a(I66
I29
I236
I38
I33
tp67
a(I66
I30
I239
I39
I34
tp68
a(I66
I31
I238
I39
I35
tp69
a(I189
I31
I238
I39
I34
tp70
a(I189
I30
I238
I39
I34
tp71
a(I189
I29
I238
I39
I34
tp72
a(I189
I28
I238
I39
I34
tp73
a(I189
I27
I238
I39
I34
tp74
a(I189
I26
I238
I39
I34
tp75
a(I189
I25
I238
I39
I34
tp76
a(I189
I24
I238
I39
I34
tp77
a(I189
I23
I238
I39
I34
tp78
a(I189
I22
I238
I39
I34
tp79
a(I189
I21
I238
I39
I34
tp80
a(I189
I20
I238
I39
I34
tp81
a(I189
I19
I238
I39
I34
tp82
a(I189
I18
I238
I39
I34
tp83
a(I189
I17
I238
I39
I34
tp84
a(I189
I16
I238
I39
I34
tp85
a(I189
I15
I238
I39
I34
tp86
a(I189
I14
I238
I39
I34
tp87
a(I189
I13
I238
I39
I34
tp88
a(I189
I12
I238
I39
I34
tp89
a(I189
I11
I238
I39
I34
tp90
a(I189
I10
I238
I39
I34
tp91
a(I189
I9
I238
I39
I34
tp92
a(I189
I8
I237
I39
I33
tp93
a(I189
I7
I243
I35
I35
tp94
a(I514
I15
I26
I77
I153
tp95
a(I514
I16
I21
I81
I150
tp96
a(I514
I17
I20
I81
I149
tp97
a(I637
I8
I239
I37
I33
tp98
a(I637
I7
I255
I43
I43
tp99
a(I67
I25
I235
I39
I39
tp100
a(I67
I26
I237
I38
I35
tp101
a(I67
I27
I238
I39
I34
tp102
a(I67
I28
I238
I39
I34
tp103
a(I67
I29
I238
I39
I34
tp104
a(I67
I30
I238
I39
I34
tp105
a(I67
I31
I238
I39
I34
tp106
a(I188
I31
I238
I39
I34
tp107
a(I188
I30
I238
I39
I34
tp108
a(I188
I29
I238
I39
I34
tp109
a(I188
I28
I238
I39
I34
tp110
a(I188
I27
I238
I39
I34
tp111
a(I188
I26
I238
I39
I34
tp112
a(I188
I25
I238
I39
I34
tp113
a(I188
I24
I238
I39
I34
tp114
a(I188
I23
I238
I39
I34
tp115
a(I188
I22
I238
I39
I34
tp116
a(I188
I21
I238
I39
I34
tp117
a(I188
I20
I238
I39
I34
tp118
a(I188
I19
I238
I39
I34
tp119
a(I188
I18
I238
I39
I34
tp120
a(I188
I17
I238
I39
I34
tp121
a(I188
I16
I238
I39
I34
tp122
a(I188
I15
I238
I39
I34
tp123
a(I188
I14
I238
I39
I34
tp124
a(I188
I13
I238
I39
I34
tp125
a(I188
I12
I238
I39
I34
tp126
a(I188
I11
I238
I39
I34
tp127
a(I188
I10
I238
I39
I34
tp128
a(I188
I9
I238
I39
I34
tp129
a(I188
I8
I238
I39
I34
tp130
a(I188
I7
I238
I39
I34
tp131
a(I188
I6
I238
I39
I34
tp132
a(I188
I5
I237
I39
I33
tp133
a(I188
I4
I241
I41
I34
tp134
a(I515
I15
I0
I85
I170
tp135
a(I515
I16
I21
I81
I150
tp136
a(I515
I17
I21
I82
I149
tp137
a(I636
I10
I255
I51
I51
tp138
a(I636
I9
I239
I40
I35
tp139
a(I636
I8
I234
I43
I43
tp140
a(I68
I22
I255
I43
I43
tp141
a(I68
I23
I237
I38
I35
tp142
a(I68
I24
I238
I39
I34
tp143
a(I68
I25
I238
I39
I34
tp144
a(I68
I26
I238
I39
I34
tp145
a(I68
I27
I238
I39
I34
tp146
a(I68
I28
I238
I39
I34
tp147
a(I68
I29
I238
I39
I34
tp148
a(I68
I30
I238
I39
I34
tp149
a(I68
I31
I238
I39
I34
tp150
a(I187
I31
I238
I39
I34
tp151
a(I187
I30
I238
I39
I34
tp152
a(I187
I29
I238
I39
I34
tp153
a(I187
I28
I238
I39
I34
tp154
a(I187
I27
I238
I39
I34
tp155
a(I187
I26
I238
I39
I34
tp156
a(I187
I25
I238
I39
I34
tp157
a(I187
I24
I238
I39
I34
tp158
a(I187
I23
I238
I39
I34
tp159
a(I187
I22
I238
I39
I34
tp160
a(I187
I21
I238
I39
I34
tp161
a(I187
I20
I238
I39
I34
tp162
a(I187
I19
I238
I39
I34
tp163
a(I187
I18
I238
I39
I34
tp164
a(I187
I17
I238
I39
I34
tp165
a(I187
I16
I238
I39
I34
tp166
a(I187
I15
I238
I39
I34
tp167
a(I187
I14
I238
I39
I34
tp168
a(I187
I13
I238
I39
I34
tp169
a(I187
I12
I238
I39
I34
tp170
a(I187
I11
I238
I39
I34
tp171
a(I187
I10
I238
I39
I34
tp172
a(I187
I9
I238
I39
I34
tp173
a(I187
I8
I238
I39
I34
tp174
a(I187
I7
I238
I39
I34
tp175
a(I187
I6
I238
I39
I34
tp176
a(I187
I5
I238
I39
I34
tp177
a(I187
I4
I238
I39
I34
tp178
a(I187
I3
I239
I39
I34
tp179
a(I187
I2
I239
I40
I35
tp180
a(I187
I1
I243
I36
I36
tp181
a(I516
I16
I21
I81
I150
tp182
a(I516
I17
I21
I80
I149
tp183
a(I635
I11
I242
I40
I40
tp184
a(I635
I10
I239
I40
I34
tp185
a(I635
I9
I238
I34
I34
tp186
a(I69
I20
I238
I41
I35
tp187
a(I69
I21
I237
I39
I34
tp188
a(I69
I22
I238
I39
I34
tp189
a(I69
I23
I238
I39
I34
tp190
a(I69
I24
I238
I39
I34
tp191
a(I69
I25
I238
I39
I34
tp192
a(I69
I26
I238
I39
I34
tp193
a(I69
I27
I238
I39
I34
tp194
a(I69
I28
I238
I39
I34
tp195
a(I69
I29
I238
I39
I34
tp196
a(I69
I30
I238
I39
I34
tp197
a(I69
I31
I238
I39
I34
tp198
a(I186
I31
I238
I39
I34
tp199
a(I186
I30
I238
I39
I34
tp200
a(I186
I29
I238
I39
I34
tp201
a(I186
I28
I238
I39
I34
tp202
a(I186
I27
I238
I39
I34
tp203
a(I186
I26
I238
I39
I34
tp204
a(I186
I25
I238
I39
I34
tp205
a(I186
I24
I238
I39
I34
tp206
a(I186
I23
I238
I39
I34
tp207
a(I186
I22
I238
I39
I34
tp208
a(I186
I21
I238
I39
I34
tp209
a(I186
I20
I238
I39
I34
tp210
a(I186
I19
I238
I39
I34
tp211
a(I186
I18
I238
I39
I34
tp212
a(I186
I17
I238
I39
I34
tp213
a(I186
I16
I238
I39
I34
tp214
a(I186
I15
I238
I39
I34
tp215
a(I186
I14
I238
I39
I34
tp216
a(I186
I13
I238
I39
I34
tp217
a(I186
I12
I238
I39
I34
tp218
a(I186
I11
I238
I39
I34
tp219
a(I186
I10
I238
I39
I34
tp220
a(I186
I9
I238
I39
I34
tp221
a(I186
I8
I238
I39
I34
tp222
a(I186
I7
I238
I39
I34
tp223
a(I186
I6
I238
I39
I34
tp224
a(I186
I5
I238
I39
I34
tp225
a(I186
I4
I238
I39
I34
tp226
a(I186
I3
I238
I39
I34
tp227
a(I186
I2
I238
I39
I34
tp228
a(I186
I1
I238
I39
I34
tp229
a(I186
I0
I238
I39
I34
tp230
a(I197
I0
I236
I37
I31
tp231
a(I517
I16
I21
I82
I150
tp232
a(I517
I17
I21
I81
I150
tp233
a(I634
I12
I239
I38
I33
tp234
a(I634
I11
I239
I39
I34
tp235
a(I634
I10
I241
I43
I28
tp236
a(I70
I18
I237
I39
I35
tp237
a(I70
I19
I238
I39
I34
tp238
a(I70
I20
I238
I39
I34
tp239
a(I70
I21
I238
I39
I34
tp240
a(I70
I22
I238
I39
I34
tp241
a(I70
I23
I238
I39
I34
tp242
a(I70
I24
I238
I39
I34
tp243
a(I70
I25
I238
I39
I34
tp244
a(I70
I26
I238
I39
I34
tp245
a(I70
I27
I238
I39
I34
tp246
a(I70
I28
I238
I39
I34
tp247
a(I70
I29
I238
I39
I34
tp248
a(I70
I30
I238
I39
I34
tp249
a(I70
I31
I238
I39
I34
tp250
a(I185
I31
I238
I39
I34
tp251
a(I185
I30
I238
I39
I34
tp252
a(I185
I29
I238
I39
I34
tp253
a(I185
I28
I238
I39
I34
tp254
a(I185
I27
I238
I39
I34
tp255
a(I185
I26
I238
I39
I34
tp256
a(I185
I25
I238
I39
I34
tp257
a(I185
I24
I238
I39
I34
tp258
a(I185
I23
I238
I39
I34
tp259
a(I185
I22
I238
I39
I34
tp260
a(I185
I21
I238
I39
I34
tp261
a(I185
I20
I238
I39
I34
tp262
a(I185
I19
I238
I39
I34
tp263
a(I185
I18
I238
I39
I34
tp264
a(I185
I17
I238
I39
I34
tp265
a(I185
I16
I238
I39
I34
tp266
a(I185
I15
I238
I39
I34
tp267
a(I185
I14
I238
I39
I34
tp268
a(I185
I13
I238
I39
I34
tp269
a(I185
I12
I238
I39
I34
tp270
a(I185
I11
I238
I39
I34
tp271
a(I185
I10
I238
I39
I34
tp272
a(I185
I9
I238
I39
I34
tp273
a(I185
I8
I238
I39
I34
tp274
a(I185
I7
I238
I39
I34
tp275
a(I185
I6
I238
I39
I34
tp276
a(I185
I5
I238
I39
I34
tp277
a(I185
I4
I238
I39
I34
tp278
a(I185
I3
I238
I39
I34
tp279
a(I185
I2
I238
I39
I34
tp280
a(I185
I1
I238
I39
I34
tp281
a(I185
I0
I238
I39
I34
tp282
a(I198
I0
I238
I39
I34
tp283
a(I198
I1
I238
I39
I34
tp284
a(I198
I2
I239
I36
I36
tp285
a(I518
I16
I21
I81
I151
tp286
a(I518
I17
I21
I81
I150
tp287
a(I518
I18
I0
I128
I128
tp288
a(I633
I13
I239
I40
I35
tp289
a(I633
I12
I238
I39
I33
tp290
a(I633
I11
I241
I43
I28
tp291
a(I71
I15
I255
I64
I64
tp292
a(I71
I16
I238
I39
I34
tp293
a(I71
I17
I238
I40
I33
tp294
a(I71
I18
I238
I39
I34
tp295
a(I71
I19
I238
I39
I34
tp296
a(I71
I20
I238
I39
I34
tp297
a(I71
I21
I238
I39
I34
tp298
a(I71
I22
I238
I39
I34
tp299
a(I71
I23
I238
I39
I34
tp300
a(I71
I24
I238
I39
I34
tp301
a(I71
I25
I238
I39
I34
tp302
a(I71
I26
I238
I39
I34
tp303
a(I71
I27
I238
I39
I34
tp304
a(I71
I28
I238
I39
I34
tp305
a(I71
I29
I238
I39
I34
tp306
a(I71
I30
I238
I39
I34
tp307
a(I71
I31
I238
I39
I34
tp308
a(I184
I31
I238
I39
I34
tp309
a(I184
I30
I238
I39
I34
tp310
a(I184
I29
I238
I39
I34
tp311
a(I184
I28
I238
I39
I34
tp312
a(I184
I27
I238
I39
I34
tp313
a(I184
I26
I238
I39
I34
tp314
a(I184
I25
I238
I39
I34
tp315
a(I184
I24
I238
I39
I34
tp316
a(I184
I23
I238
I39
I34
tp317
a(I184
I22
I238
I39
I34
tp318
a(I184
I21
I238
I39
I34
tp319
a(I184
I20
I238
I39
I34
tp320
a(I184
I19
I238
I39
I34
tp321
a(I184
I18
I238
I39
I34
tp322
a(I184
I17
I238
I39
I34
tp323
a(I184
I16
I238
I39
I34
tp324
a(I184
I15
I238
I39
I34
tp325
a(I184
I14
I238
I39
I34
tp326
a(I184
I13
I238
I39
I34
tp327
a(I184
I12
I238
I39
I34
tp328
a(I184
I11
I238
I39
I34
tp329
a(I184
I10
I238
I39
I34
tp330
a(I184
I9
I238
I39
I34
tp331
a(I184
I8
I238
I39
I34
tp332
a(I184
I7
I238
I39
I34
tp333
a(I184
I6
I238
I39
I34
tp334
a(I184
I5
I238
I39
I34
tp335
a(I184
I4
I238
I39
I34
tp336
a(I184
I3
I238
I39
I34
tp337
a(I184
I2
I238
I39
I34
tp338
a(I184
I1
I238
I39
I34
tp339
a(I184
I0
I238
I39
I34
tp340
a(I199
I0
I238
I39
I34
tp341
a(I199
I1
I238
I39
I34
tp342
a(I199
I2
I238
I39
I34
tp343
a(I199
I3
I238
I39
I34
tp344
a(I199
I4
I236
I38
I34
tp345
a(I519
I16
I20
I80
I150
tp346
a(I519
I17
I21
I81
I150
tp347
a(I519
I18
I18
I79
I149
tp348
a(I632
I15
I223
I32
I32
tp349
a(I632
I14
I239
I39
I34
tp350
a(I632
I13
I239
I39
I34
tp351
a(I632
I12
I239
I32
I32
tp352
a(I72
I13
I255
I0
I0
tp353
a(I72
I14
I237
I39
I33
tp354
a(I72
I15
I239
I39
I34
tp355
a(I72
I16
I238
I39
I34
tp356
a(I72
I17
I238
I39
I34
tp357
a(I72
I18
I238
I39
I34
tp358
a(I72
I19
I238
I39
I34
tp359
a(I72
I20
I238
I39
I34
tp360
a(I72
I21
I238
I39
I34
tp361
a(I72
I22
I238
I39
I34
tp362
a(I72
I23
I238
I39
I34
tp363
a(I72
I24
I238
I39
I34
tp364
a(I72
I25
I238
I39
I34
tp365
a(I72
I26
I238
I39
I34
tp366
a(I72
I27
I238
I39
I34
tp367
a(I72
I28
I238
I39
I34
tp368
a(I72
I29
I238
I39
I34
tp369
a(I72
I30
I238
I39
I34
tp370
a(I72
I31
I238
I39
I34
tp371
a(I183
I31
I238
I39
I34
tp372
a(I183
I30
I238
I39
I34
tp373
a(I183
I29
I238
I39
I34
tp374
a(I183
I28
I238
I39
I34
tp375
a(I183
I27
I238
I39
I34
tp376
a(I183
I26
I238
I39
I34
tp377
a(I183
I25
I238
I39
I34
tp378
a(I183
I24
I238
I39
I34
tp379
a(I183
I23
I238
I39
I34
tp380
a(I183
I22
I238
I39
I34
tp381
a(I183
I21
I238
I39
I34
tp382
a(I183
I20
I238
I39
I34
tp383
a(I183
I19
I238
I39
I34
tp384
a(I183
I18
I238
I39
I34
tp385
a(I183
I17
I238
I39
I34
tp386
a(I183
I16
I238
I39
I34
tp387
a(I183
I15
I238
I39
I34
tp388
a(I183
I14
I238
I39
I34
tp389
a(I183
I13
I238
I39
I34
tp390
a(I183
I12
I238
I39
I34
tp391
a(I183
I11
I238
I39
I34
tp392
a(I183
I10
I238
I39
I34
tp393
a(I183
I9
I238
I39
I34
tp394
a(I183
I8
I238
I39
I34
tp395
a(I183
I7
I238
I39
I34
tp396
a(I183
I6
I238
I39
I34
tp397
a(I183
I5
I238
I39
I34
tp398
a(I183
I4
I238
I39
I34
tp399
a(I183
I3
I238
I39
I34
tp400
a(I183
I2
I238
I39
I34
tp401
a(I183
I1
I238
I39
I34
tp402
a(I183
I0
I238
I39
I34
tp403
a(I200
I0
I238
I39
I34
tp404
a(I200
I1
I238
I39
I34
tp405
a(I200
I2
I238
I39
I34
tp406
a(I200
I3
I238
I39
I34
tp407
a(I200
I4
I238
I39
I34
tp408
a(I200
I5
I238
I40
I35
tp409
a(I200
I6
I241
I43
I28
tp410
a(I520
I16
I21
I81
I149
tp411
a(I520
I17
I21
I81
I150
tp412
a(I520
I18
I21
I81
I149
tp413
a(I631
I16
I241
I43
I35
tp414
a(I631
I15
I238
I39
I34
tp415
a(I631
I14
I238
I39
I34
tp416
a(I631
I13
I237
I36
I36
tp417
a(I73
I12
I239
I37
I33
tp418
a(I73
I13
I238
I39
I33
tp419
a(I73
I14
I238
I39
I34
tp420
a(I73
I15
I238
I39
I34
tp421
a(I73
I16
I238
I39
I34
tp422
a(I73
I17
I238
I39
I34
tp423
a(I73
I18
I238
I39
I34
tp424
a(I73
I19
I238
I39
I34
tp425
a(I73
I20
I238
I39
I34
tp426
a(I73
I21
I238
I39
I34
tp427
a(I73
I22
I238
I39
I34
tp428
a(I73
I23
I238
I39
I34
tp429
a(I73
I24
I238
I39
I34
tp430
a(I73
I25
I238
I39
I34
tp431
a(I73
I26
I238
I39
I34
tp432
a(I73
I27
I238
I39
I34
tp433
a(I73
I28
I238
I39
I34
tp434
a(I73
I29
I238
I39
I34
tp435
a(I73
I30
I238
I39
I34
tp436
a(I73
I31
I238
I39
I34
tp437
a(I182
I31
I238
I39
I34
tp438
a(I182
I30
I238
I39
I34
tp439
a(I182
I29
I238
I39
I34
tp440
a(I182
I28
I238
I39
I34
tp441
a(I182
I27
I238
I39
I34
tp442
a(I182
I26
I238
I39
I34
tp443
a(I182
I25
I238
I39
I34
tp444
a(I182
I24
I238
I39
I34
tp445
a(I182
I23
I238
I39
I34
tp446
a(I182
I22
I238
I39
I34
tp447
a(I182
I21
I238
I39
I34
tp448
a(I182
I20
I238
I39
I34
tp449
a(I182
I19
I238
I39
I34
tp450
a(I182
I18
I238
I39
I34
tp451
a(I182
I17
I238
I39
I34
tp452
a(I182
I16
I238
I39
I34
tp453
a(I182
I15
I238
I39
I34
tp454
a(I182
I14
I238
I39
I34
tp455
a(I182
I13
I238
I39
I34
tp456
a(I182
I12
I238
I39
I34
tp457
a(I182
I11
I238
I39
I34
tp458
a(I182
I10
I238
I39
I34
tp459
a(I182
I9
I238
I39
I34
tp460
a(I182
I8
I238
I39
I34
tp461
a(I182
I7
I238
I39
I34
tp462
a(I182
I6
I238
I39
I34
tp463
a(I182
I5
I238
I39
I34
tp464
a(I182
I4
I238
I39
I34
tp465
a(I182
I3
I238
I39
I34
tp466
a(I182
I2
I238
I39
I34
tp467
a(I182
I1
I238
I39
I34
tp468
a(I182
I0
I238
I39
I34
tp469
a(I201
I0
I238
I39
I34
tp470
a(I201
I1
I238
I39
I34
tp471
a(I201
I2
I238
I39
I34
tp472
a(I201
I3
I238
I39
I34
tp473
a(I201
I4
I238
I39
I34
tp474
a(I201
I5
I238
I39
I34
tp475
a(I201
I6
I238
I39
I34
tp476
a(I201
I7
I238
I39
I34
tp477
a(I201
I8
I255
I0
I0
tp478
a(I521
I16
I22
I81
I149
tp479
a(I521
I17
I21
I81
I150
tp480
a(I521
I18
I21
I81
I150
tp481
a(I630
I17
I237
I39
I33
tp482
a(I630
I16
I238
I39
I34
tp483
a(I630
I15
I239
I40
I34
tp484
a(I630
I14
I232
I46
I23
tp485
a(I74
I10
I238
I43
I34
tp486
a(I74
I11
I238
I39
I35
tp487
a(I74
I12
I238
I39
I34
tp488
a(I74
I13
I238
I39
I34
tp489
a(I74
I14
I238
I39
I34
tp490
a(I74
I15
I238
I39
I34
tp491
a(I74
I16
I238
I39
I34
tp492
a(I74
I17
I238
I39
I34
tp493
a(I74
I18
I238
I39
I34
tp494
a(I74
I19
I238
I39
I34
tp495
a(I74
I20
I238
I39
I34
tp496
a(I74
I21
I238
I39
I34
tp497
a(I74
I22
I238
I39
I34
tp498
a(I74
I23
I238
I39
I34
tp499
a(I74
I24
I238
I39
I34
tp500
a(I74
I25
I238
I39
I34
tp501
a(I74
I26
I238
I39
I34
tp502
a(I74
I27
I238
I39
I34
tp503
a(I74
I28
I238
I39
I34
tp504
a(I74
I29
I238
I39
I34
tp505
a(I74
I30
I238
I39
I34
tp506
a(I74
I31
I238
I39
I34
tp507
a(I181
I31
I238
I39
I34
tp508
a(I181
I30
I238
I39
I34
tp509
a(I181
I29
I238
I39
I34
tp510
a(I181
I28
I238
I39
I34
tp511
a(I181
I27
I238
I39
I34
tp512
a(I181
I26
I238
I39
I34
tp513
a(I181
I25
I238
I39
I34
tp514
a(I181
I24
I238
I39
I34
tp515
a(I181
I23
I238
I39
I34
tp516
a(I181
I22
I238
I39
I34
tp517
a(I181
I21
I238
I39
I34
tp518
a(I181
I20
I238
I39
I34
tp519
a(I181
I19
I238
I39
I34
tp520
a(I181
I18
I238
I39
I34
tp521
a(I181
I17
I238
I39
I34
tp522
a(I181
I16
I238
I39
I34
tp523
a(I181
I15
I238
I39
I34
tp524
a(I181
I14
I238
I39
I34
tp525
a(I181
I13
I238
I39
I34
tp526
a(I181
I12
I238
I39
I34
tp527
a(I181
I11
I238
I39
I34
tp528
a(I181
I10
I238
I39
I34
tp529
a(I181
I9
I238
I39
I34
tp530
a(I181
I8
I238
I39
I34
tp531
a(I181
I7
I238
I39
I34
tp532
a(I181
I6
I238
I39
I34
tp533
a(I181
I5
I238
I39
I34
tp534
a(I181
I4
I238
I39
I34
tp535
a(I181
I3
I238
I39
I34
tp536
a(I181
I2
I238
I39
I34
tp537
a(I181
I1
I238
I39
I34
tp538
a(I181
I0
I238
I39
I34
tp539
a(I202
I0
I238
I39
I34
tp540
a(I202
I1
I238
I39
I34
tp541
a(I202
I2
I238
I39
I34
tp542
a(I202
I3
I238
I39
I34
tp543
a(I202
I4
I238
I39
I34
tp544
a(I202
I5
I238
I39
I34
tp545
a(I202
I6
I238
I39
I34
tp546
a(I202
I7
I238
I39
I34
tp547
a(I202
I8
I238
I39
I34
tp548
a(I202
I9
I240
I40
I35
tp549
a(I522
I16
I21
I82
I150
tp550
a(I522
I17
I21
I81
I150
tp551
a(I522
I18
I21
I81
I151
tp552
a(I629
I19
I243
I36
I36
tp553
a(I629
I18
I238
I39
I33
tp554
a(I629
I17
I238
I39
I34
tp555
a(I629
I16
I237
I40
I34
tp556
a(I629
I15
I255
I36
I36
tp557
a(I75
I8
I255
I43
I43
tp558
a(I75
I9
I238
I39
I33
tp559
a(I75
I10
I238
I39
I34
tp560
a(I75
I11
I238
I39
I34
tp561
a(I75
I12
I238
I39
I34
tp562
a(I75
I13
I238
I39
I34
tp563
a(I75
I14
I238
I39
I34
tp564
a(I75
I15
I238
I39
I34
tp565
a(I75
I16
I238
I39
I34
tp566
a(I75
I17
I238
I39
I34
tp567
a(I75
I18
I238
I39
I34
tp568
a(I75
I19
I238
I39
I34
tp569
a(I75
I20
I238
I39
I34
tp570
a(I75
I21
I238
I39
I34
tp571
a(I75
I22
I238
I39
I34
tp572
a(I75
I23
I238
I39
I34
tp573
a(I75
I24
I238
I39
I34
tp574
a(I75
I25
I238
I39
I34
tp575
a(I75
I26
I238
I39
I34
tp576
a(I75
I27
I238
I39
I34
tp577
a(I75
I28
I238
I39
I34
tp578
a(I75
I29
I238
I39
I34
tp579
a(I75
I30
I238
I39
I34
tp580
a(I75
I31
I238
I39
I34
tp581
a(I180
I31
I238
I39
I34
tp582
a(I180
I30
I238
I39
I34
tp583
a(I180
I29
I238
I39
I34
tp584
a(I180
I28
I238
I39
I34
tp585
a(I180
I27
I238
I39
I34
tp586
a(I180
I26
I238
I39
I34
tp587
a(I180
I25
I238
I39
I34
tp588
a(I180
I24
I238
I39
I34
tp589
a(I180
I23
I238
I39
I34
tp590
a(I180
I22
I238
I39
I34
tp591
a(I180
I21
I238
I39
I34
tp592
a(I180
I20
I238
I39
I34
tp593
a(I180
I19
I238
I39
I34
tp594
a(I180
I18
I238
I39
I34
tp595
a(I180
I17
I238
I39
I34
tp596
a(I180
I16
I238
I39
I34
tp597
a(I180
I15
I238
I39
I34
tp598
a(I180
I14
I238
I39
I34
tp599
a(I180
I13
I238
I39
I34
tp600
a(I180
I12
I238
I39
I34
tp601
a(I180
I11
I238
I39
I34
tp602
a(I180
I10
I238
I39
I34
tp603
a(I180
I9
I238
I39
I34
tp604
a(I180
I8
I238
I39
I34
tp605
a(I180
I7
I238
I39
I34
tp606
a(I180
I6
I238
I39
I34
tp607
a(I180
I5
I238
I39
I34
tp608
a(I180
I4
I238
I39
I34
tp609
a(I180
I3
I238
I39
I34
tp610
a(I180
I2
I238
I39
I34
tp611
a(I180
I1
I238
I39
I34
tp612
a(I180
I0
I238
I39
I34
tp613
a(I203
I0
I238
I39
I34
tp614
a(I203
I1
I238
I39
I34
tp615
a(I203
I2
I238
I39
I34
tp616
a(I203
I3
I238
I39
I34
tp617
a(I203
I4
I238
I39
I34
tp618
a(I203
I5
I238
I39
I34
tp619
a(I203
I6
I238
I39
I34
tp620
a(I203
I7
I238
I39
I34
tp621
a(I203
I8
I238
I39
I34
tp622
a(I203
I9
I238
I39
I34
tp623
a(I203
I10
I238
I39
I35
tp624
a(I203
I11
I255
I0
I0
tp625
a(I523
I16
I21
I81
I150
tp626
a(I523
I17
I21
I81
I150
tp627
a(I523
I18
I21
I81
I149
tp628
a(I628
I20
I239
I39
I33
tp629
a(I628
I19
I238
I39
I34
tp630
a(I628
I18
I238
I39
I34
tp631
a(I628
I17
I238
I39
I34
tp632
a(I628
I16
I255
I64
I64
tp633
a(I76
I7
I239
I40
I36
tp634
a(I76
I8
I238
I39
I35
tp635
a(I76
I9
I238
I39
I34
tp636
a(I76
I10
I238
I39
I34
tp637
a(I76
I11
I238
I39
I34
tp638
a(I76
I12
I238
I39
I34
tp639
a(I76
I13
I238
I39
I34
tp640
a(I76
I14
I238
I39
I34
tp641
a(I76
I15
I238
I39
I34
tp642
a(I76
I16
I238
I39
I34
tp643
a(I76
I17
I238
I39
I34
tp644
a(I76
I18
I238
I39
I34
tp645
a(I76
I19
I238
I39
I34
tp646
a(I76
I20
I238
I39
I34
tp647
a(I76
I21
I238
I39
I34
tp648
a(I76
I22
I238
I39
I34
tp649
a(I76
I23
I238
I39
I34
tp650
a(I76
I24
I238
I39
I34
tp651
a(I76
I25
I238
I39
I34
tp652
a(I76
I26
I238
I39
I34
tp653
a(I76
I27
I238
I39
I34
tp654
a(I76
I28
I238
I39
I34
tp655
a(I76
I29
I238
I39
I34
tp656
a(I76
I30
I238
I39
I34
tp657
a(I76
I31
I238
I39
I34
tp658
a(I179
I31
I238
I39
I34
tp659
a(I179
I30
I238
I39
I34
tp660
a(I179
I29
I238
I39
I34
tp661
a(I179
I28
I238
I39
I34
tp662
a(I179
I27
I238
I39
I34
tp663
a(I179
I26
I238
I39
I34
tp664
a(I179
I25
I238
I39
I34
tp665
a(I179
I24
I238
I39
I34
tp666
a(I179
I23
I238
I39
I34
tp667
a(I179
I22
I238
I39
I34
tp668
a(I179
I21
I238
I39
I34
tp669
a(I179
I20
I238
I39
I34
tp670
a(I179
I19
I238
I39
I34
tp671
a(I179
I18
I238
I39
I34
tp672
a(I179
I17
I238
I39
I34
tp673
a(I179
I16
I238
I39
I34
tp674
a(I179
I15
I238
I39
I34
tp675
a(I179
I14
I238
I39
I34
tp676
a(I179
I13
I238
I39
I34
tp677
a(I179
I12
I238
I39
I34
tp678
a(I179
I11
I238
I39
I34
tp679
a(I179
I10
I238
I39
I34
tp680
a(I179
I9
I238
I39
I34
tp681
a(I179
I8
I238
I39
I34
tp682
a(I179
I7
I238
I39
I34
tp683
a(I179
I6
I238
I39
I34
tp684
a(I179
I5
I238
I39
I34
tp685
a(I179
I4
I238
I39
I34
tp686
a(I179
I3
I238
I39
I34
tp687
a(I179
I2
I238
I39
I34
tp688
a(I179
I1
I238
I39
I34
tp689
a(I179
I0
I238
I39
I34
tp690
a(I204
I0
I238
I39
I34
tp691
a(I204
I1
I238
I39
I34
tp692
a(I204
I2
I238
I39
I34
tp693
a(I204
I3
I238
I39
I34
tp694
a(I204
I4
I238
I39
I34
tp695
a(I204
I5
I238
I39
I34
tp696
a(I204
I6
I238
I39
I34
tp697
a(I204
I7
I238
I39
I34
tp698
a(I204
I8
I238
I39
I34
tp699
a(I204
I9
I238
I39
I34
tp700
a(I204
I10
I238
I39
I34
tp701
a(I204
I11
I238
I40
I34
tp702
a(I204
I12
I243
I35
I35
tp703
a(I524
I16
I20
I80
I150
tp704
a(I524
I17
I21
I81
I150
tp705
a(I524
I18
I21
I81
I150
tp706
a(I627
I22
I240
I45
I30
tp707
a(I627
I21
I239
I39
I34
tp708
a(I627
I20
I238
I39
I34
tp709
a(I627
I19
I238
I39
I34
tp710
a(I627
I18
I237
I39
I33
tp711
a(I627
I17
I255
I0
I0
tp712
a(I77
I5
I230
I51
I26
tp713
a(I77
I6
I237
I39
I33
tp714
a(I77
I7
I238
I39
I34
tp715
a(I77
I8
I238
I39
I34
tp716
a(I77
I9
I238
I39
I34
tp717
a(I77
I10
I238
I39
I34
tp718
a(I77
I11
I238
I39
I34
tp719
a(I77
I12
I238
I39
I34
tp720
a(I77
I13
I238
I39
I34
tp721
a(I77
I14
I238
I39
I34
tp722
a(I77
I15
I238
I39
I34
tp723
a(I77
I16
I238
I39
I34
tp724
a(I77
I17
I238
I39
I34
tp725
a(I77
I18
I238
I39
I34
tp726
a(I77
I19
I238
I39
I34
tp727
a(I77
I20
I238
I39
I34
tp728
a(I77
I21
I238
I39
I34
tp729
a(I77
I22
I238
I39
I34
tp730
a(I77
I23
I238
I39
I34
tp731
a(I77
I24
I238
I39
I34
tp732
a(I77
I25
I238
I39
I34
tp733
a(I77
I26
I238
I39
I34
tp734
a(I77
I27
I238
I39
I34
tp735
a(I77
I28
I238
I39
I34
tp736
a(I77
I29
I238
I39
I34
tp737
a(I77
I30
I238
I39
I34
tp738
a(I77
I31
I238
I39
I34
tp739
a(I178
I31
I238
I39
I34
tp740
a(I178
I30
I238
I39
I34
tp741
a(I178
I29
I238
I39
I34
tp742
a(I178
I28
I238
I39
I34
tp743
a(I178
I27
I238
I39
I34
tp744
a(I178
I26
I238
I39
I34
tp745
a(I178
I25
I238
I39
I34
tp746
a(I178
I24
I238
I39
I34
tp747
a(I178
I23
I238
I39
I34
tp748
a(I178
I22
I238
I39
I34
tp749
a(I178
I21
I238
I39
I34
tp750
a(I178
I20
I238
I39
I34
tp751
a(I178
I19
I238
I39
I34
tp752
a(I178
I18
I238
I39
I34
tp753
a(I178
I17
I238
I39
I34
tp754
a(I178
I16
I238
I39
I34
tp755
a(I178
I15
I238
I39
I34
tp756
a(I178
I14
I238
I39
I34
tp757
a(I178
I13
I238
I39
I34
tp758
a(I178
I12
I238
I39
I34
tp759
a(I178
I11
I238
I39
I34
tp760
a(I178
I10
I238
I39
I34
tp761
a(I178
I9
I238
I39
I34
tp762
a(I178
I8
I238
I39
I34
tp763
a(I178
I7
I238
I39
I34
tp764
a(I178
I6
I238
I39
I34
tp765
a(I178
I5
I238
I39
I34
tp766
a(I178
I4
I238
I39
I34
tp767
a(I178
I3
I238
I39
I34
tp768
a(I178
I2
I238
I39
I34
tp769
a(I178
I1
I238
I39
I34
tp770
a(I178
I0
I238
I39
I34
tp771
a(I205
I0
I238
I39
I34
tp772
a(I205
I1
I238
I39
I34
tp773
a(I205
I2
I238
I39
I34
tp774
a(I205
I3
I238
I39
I34
tp775
a(I205
I4
I238
I39
I34
tp776
a(I205
I5
I238
I39
I34
tp777
a(I205
I6
I238
I39
I34
tp778
a(I205
I7
I238
I39
I34
tp779
a(I205
I8
I238
I39
I34
tp780
a(I205
I9
I238
I39
I34
tp781
a(I205
I10
I238
I39
I34
tp782
a(I205
I11
I238
I39
I34
tp783
a(I205
I12
I238
I39
I34
tp784
a(I205
I13
I237
I40
I32
tp785
a(I525
I16
I20
I80
I150
tp786
a(I525
I17
I21
I81
I150
tp787
a(I525
I18
I21
I81
I149
tp788
a(I626
I23
I238
I39
I34
tp789
a(I626
I22
I237
I39
I34
tp790
a(I626
I21
I238
I39
I34
tp791
a(I626
I20
I238
I39
I34
tp792
a(I626
I19
I237
I40
I33
tp793
a(I78
I4
I237
I41
I32
tp794
a(I78
I5
I238
I39
I34
tp795
a(I78
I6
I238
I39
I34
tp796
a(I78
I7
I238
I39
I34
tp797
a(I78
I8
I238
I39
I34
tp798
a(I78
I9
I238
I39
I34
tp799
a(I78
I10
I238
I39
I34
tp800
a(I78
I11
I238
I39
I34
tp801
a(I78
I12
I238
I39
I34
tp802
a(I78
I13
I238
I39
I34
tp803
a(I78
I14
I238
I39
I34
tp804
a(I78
I15
I238
I39
I34
tp805
a(I78
I16
I238
I39
I34
tp806
a(I78
I17
I238
I39
I34
tp807
a(I78
I18
I238
I39
I34
tp808
a(I78
I19
I238
I39
I34
tp809
a(I78
I20
I238
I39
I34
tp810
a(I78
I21
I238
I39
I34
tp811
a(I78
I22
I238
I39
I34
tp812
a(I78
I23
I238
I39
I34
tp813
a(I78
I24
I238
I39
I34
tp814
a(I78
I25
I238
I39
I34
tp815
a(I78
I26
I238
I39
I34
tp816
a(I78
I27
I238
I39
I34
tp817
a(I78
I28
I238
I39
I34
tp818
a(I78
I29
I238
I39
I34
tp819
a(I78
I30
I238
I39
I34
tp820
a(I78
I31
I238
I39
I34
tp821
a(I177
I31
I238
I39
I34
tp822
a(I177
I30
I238
I39
I34
tp823
a(I177
I29
I238
I39
I34
tp824
a(I177
I28
I238
I39
I34
tp825
a(I177
I27
I238
I39
I34
tp826
a(I177
I26
I238
I39
I34
tp827
a(I177
I25
I238
I39
I34
tp828
a(I177
I24
I238
I39
I34
tp829
a(I177
I23
I238
I39
I34
tp830
a(I177
I22
I238
I39
I34
tp831
a(I177
I21
I238
I39
I34
tp832
a(I177
I20
I238
I39
I34
tp833
a(I177
I19
I238
I39
I34
tp834
a(I177
I18
I238
I39
I34
tp835
a(I177
I17
I238
I39
I34
tp836
a(I177
I16
I238
I39
I34
tp837
a(I177
I15
I238
I39
I34
tp838
a(I177
I14
I238
I39
I34
tp839
a(I177
I13
I238
I39
I34
tp840
a(I177
I12
I238
I39
I34
tp841
a(I177
I11
I238
I39
I34
tp842
a(I177
I10
I238
I39
I34
tp843
a(I177
I9
I238
I39
I34
tp844
a(I177
I8
I238
I39
I34
tp845
a(I177
I7
I238
I39
I34
tp846
a(I177
I6
I238
I39
I34
tp847
a(I177
I5
I238
I39
I34
tp848
a(I177
I4
I238
I39
I34
tp849
a(I177
I3
I238
I39
I34
tp850
a(I177
I2
I238
I39
I34
tp851
a(I177
I1
I238
I39
I34
tp852
a(I177
I0
I238
I39
I34
tp853
a(I206
I0
I238
I39
I34
tp854
a(I206
I1
I238
I39
I34
tp855
a(I206
I2
I238
I39
I34
tp856
a(I206
I3
I238
I39
I34
tp857
a(I206
I4
I238
I39
I34
tp858
a(I206
I5
I238
I39
I34
tp859
a(I206
I6
I238
I39
I34
tp860
a(I206
I7
I238
I39
I34
tp861
a(I206
I8
I238
I39
I34
tp862
a(I206
I9
I238
I39
I34
tp863
a(I206
I10
I238
I39
I34
tp864
a(I206
I11
I238
I39
I34
tp865
a(I206
I12
I238
I39
I34
tp866
a(I206
I13
I238
I39
I34
tp867
a(I206
I14
I238
I39
I35
tp868
a(I206
I15
I255
I51
I51
tp869
a(I526
I16
I20
I82
I150
tp870
a(I526
I17
I21
I81
I150
tp871
a(I526
I18
I20
I81
I150
tp872
a(I625
I25
I241
I43
I35
tp873
a(I625
I24
I239
I40
I34
tp874
a(I625
I23
I238
I39
I34
tp875
a(I625
I22
I238
I39
I34
tp876
a(I625
I21
I238
I39
I34
tp877
a(I625
I20
I239
I38
I33
tp878
a(I79
I2
I255
I0
I0
tp879
a(I79
I3
I237
I40
I34
tp880
a(I79
I4
I238
I39
I34
tp881
a(I79
I5
I238
I39
I34
tp882
a(I79
I6
I238
I39
I34
tp883
a(I79
I7
I238
I39
I34
tp884
a(I79
I8
I238
I39
I34
tp885
a(I79
I9
I238
I39
I34
tp886
a(I79
I10
I238
I39
I34
tp887
a(I79
I11
I238
I39
I34
tp888
a(I79
I12
I238
I39
I34
tp889
a(I79
I13
I238
I39
I34
tp890
a(I79
I14
I238
I39
I34
tp891
a(I79
I15
I238
I39
I34
tp892
a(I79
I16
I238
I39
I34
tp893
a(I79
I17
I238
I39
I34
tp894
a(I79
I18
I238
I39
I34
tp895
a(I79
I19
I238
I39
I34
tp896
a(I79
I20
I238
I39
I34
tp897
a(I79
I21
I238
I39
I34
tp898
a(I79
I22
I238
I39
I34
tp899
a(I79
I23
I238
I39
I34
tp900
a(I79
I24
I238
I39
I34
tp901
a(I79
I25
I238
I39
I34
tp902
a(I79
I26
I238
I39
I34
tp903
a(I79
I27
I238
I39
I34
tp904
a(I79
I28
I238
I39
I34
tp905
a(I79
I29
I238
I39
I34
tp906
a(I79
I30
I238
I39
I34
tp907
a(I79
I31
I238
I39
I34
tp908
a(I176
I31
I238
I39
I34
tp909
a(I176
I30
I238
I39
I34
tp910
a(I176
I29
I238
I39
I34
tp911
a(I176
I28
I238
I39
I34
tp912
a(I176
I27
I238
I39
I34
tp913
a(I176
I26
I238
I39
I34
tp914
a(I176
I25
I238
I39
I34
tp915
a(I176
I24
I238
I39
I34
tp916
a(I176
I23
I238
I39
I34
tp917
a(I176
I22
I238
I39
I34
tp918
a(I176
I21
I238
I39
I34
tp919
a(I176
I20
I238
I39
I34
tp920
a(I176
I19
I238
I39
I34
tp921
a(I176
I18
I238
I39
I34
tp922
a(I176
I17
I238
I39
I34
tp923
a(I176
I16
I238
I39
I34
tp924
a(I176
I15
I238
I39
I34
tp925
a(I176
I14
I238
I39
I34
tp926
a(I176
I13
I238
I39
I34
tp927
a(I176
I12
I238
I39
I34
tp928
a(I176
I11
I238
I39
I34
tp929
a(I176
I10
I238
I39
I34
tp930
a(I176
I9
I238
I39
I34
tp931
a(I176
I8
I238
I39
I34
tp932
a(I176
I7
I238
I39
I34
tp933
a(I176
I6
I238
I39
I34
tp934
a(I176
I5
I238
I39
I34
tp935
a(I176
I4
I238
I39
I34
tp936
a(I176
I3
I238
I39
I34
tp937
a(I176
I2
I238
I39
I34
tp938
a(I176
I1
I238
I39
I34
tp939
a(I176
I0
I238
I39
I34
tp940
a(I207
I0
I238
I39
I34
tp941
a(I207
I1
I238
I39
I34
tp942
a(I207
I2
I238
I39
I34
tp943
a(I207
I3
I238
I39
I34
tp944
a(I207
I4
I238
I39
I34
tp945
a(I207
I5
I238
I39
I34
tp946
a(I207
I6
I238
I39
I34
tp947
a(I207
I7
I238
I39
I34
tp948
a(I207
I8
I238
I39
I34
tp949
a(I207
I9
I238
I39
I34
tp950
a(I207
I10
I238
I39
I34
tp951
a(I207
I11
I238
I39
I34
tp952
a(I207
I12
I238
I39
I34
tp953
a(I207
I13
I238
I39
I34
tp954
a(I207
I14
I238
I39
I34
tp955
a(I207
I15
I238
I38
I35
tp956
a(I207
I16
I240
I38
I38
tp957
a(I527
I16
I21
I81
I150
tp958
a(I527
I17
I21
I81
I150
tp959
a(I527
I18
I21
I81
I150
tp960
a(I624
I27
I255
I36
I36
tp961
a(I624
I26
I239
I38
I34
tp962
a(I624
I25
I238
I39
I34
tp963
a(I624
I24
I238
I39
I34
tp964
a(I624
I23
I238
I39
I34
tp965
a(I624
I22
I238
I39
I34
tp966
a(I624
I21
I239
I40
I36
tp967
a(I80
I1
I233
I44
I33
tp968
a(I80
I2
I237
I39
I34
tp969
a(I80
I3
I238
I39
I34
tp970
a(I80
I4
I238
I39
I34
tp971
a(I80
I5
I238
I39
I34
tp972
a(I80
I6
I238
I39
I34
tp973
a(I80
I7
I238
I39
I34
tp974
a(I80
I8
I238
I39
I34
tp975
a(I80
I9
I238
I39
I34
tp976
a(I80
I10
I238
I39
I34
tp977
a(I80
I11
I238
I39
I34
tp978
a(I80
I12
I238
I39
I34
tp979
a(I80
I13
I238
I39
I34
tp980
a(I80
I14
I238
I39
I34
tp981
a(I80
I15
I238
I39
I34
tp982
a(I80
I16
I238
I39
I34
tp983
a(I80
I17
I238
I39
I34
tp984
a(I80
I18
I238
I39
I34
tp985
a(I80
I19
I238
I39
I34
tp986
a(I80
I20
I238
I39
I34
tp987
a(I80
I21
I238
I39
I34
tp988
a(I80
I22
I238
I39
I34
tp989
a(I80
I23
I238
I39
I34
tp990
a(I80
I24
I238
I39
I34
tp991
a(I80
I25
I238
I39
I34
tp992
a(I80
I26
I238
I39
I34
tp993
a(I80
I27
I238
I39
I34
tp994
a(I80
I28
I238
I39
I34
tp995
a(I80
I29
I238
I39
I34
tp996
a(I80
I30
I238
I39
I34
tp997
a(I80
I31
I238
I39
I34
tp998
a(I175
I31
I238
I39
I34
tp999
a(I175
I30
I238
I39
I34
tp1000
a(I175
I29
I238
I39
I34
tp1001
a(I175
I28
I238
I39
I34
tp1002
a(I175
I27
I238
I39
I34
tp1003
a(I175
I26
I238
I39
I34
tp1004
a(I175
I25
I238
I39
I34
tp1005
a(I175
I24
I238
I39
I34
tp1006
a(I175
I23
I238
I39
I34
tp1007
a(I175
I22
I238
I39
I34
tp1008
a(I175
I21
I238
I39
I34
tp1009
a(I175
I20
I238
I39
I34
tp1010
a(I175
I19
I238
I39
I34
tp1011
a(I175
I18
I238
I39
I34
tp1012
a(I175
I17
I238
I39
I34
tp1013
a(I175
I16
I238
I39
I34
tp1014
a(I175
I15
I238
I39
I34
tp1015
a(I175
I14
I238
I39
I34
tp1016
a(I175
I13
I238
I39
I34
tp1017
a(I175
I12
I238
I39
I34
tp1018
a(I175
I11
I238
I39
I34
tp1019
a(I175
I10
I238
I39
I34
tp1020
a(I175
I9
I238
I39
I34
tp1021
a(I175
I8
I238
I39
I34
tp1022
a(I175
I7
I238
I39
I34
tp1023
a(I175
I6
I238
I39
I34
tp1024
a(I175
I5
I238
I39
I34
tp1025
a(I175
I4
I238
I39
I34
tp1026
a(I175
I3
I238
I39
I34
tp1027
a(I175
I2
I238
I39
I34
tp1028
a(I175
I1
I238
I39
I34
tp1029
a(I175
I0
I238
I39
I34
tp1030
a(I208
I0
I238
I39
I34
tp1031
a(I208
I1
I238
I39
I34
tp1032
a(I208
I2
I238
I39
I34
tp1033
a(I208
I3
I238
I39
I34
tp1034
a(I208
I4
I238
I39
I34
tp1035
a(I208
I5
I238
I39
I34
tp1036
a(I208
I6
I238
I39
I34
tp1037
a(I208
I7
I238
I39
I34
tp1038
a(I208
I8
I238
I39
I34
tp1039
a(I208
I9
I238
I39
I34
tp1040
a(I208
I10
I238
I39
I34
tp1041
a(I208
I11
I238
I39
I34
tp1042
a(I208
I12
I238
I39
I34
tp1043
a(I208
I13
I238
I39
I34
tp1044
a(I208
I14
I238
I39
I34
tp1045
a(I208
I15
I238
I39
I34
tp1046
a(I208
I16
I238
I39
I34
tp1047
a(I208
I17
I238
I38
I35
tp1048
a(I528
I16
I21
I81
I150
tp1049
a(I528
I17
I21
I81
I150
tp1050
a(I528
I18
I21
I81
I150
tp1051
a(I528
I19
I36
I73
I146
tp1052
a(I623
I28
I237
I39
I33
tp1053
a(I623
I27
I237
I39
I34
tp1054
a(I623
I26
I238
I39
I34
tp1055
a(I623
I25
I238
I39
I34
tp1056
a(I623
I24
I238
I39
I34
tp1057
a(I623
I23
I238
I39
I34
tp1058
a(I623
I22
I239
I38
I33
tp1059
a(I81
I0
I237
I39
I35
tp1060
a(I81
I1
I238
I39
I34
tp1061
a(I81
I2
I238
I39
I34
tp1062
a(I81
I3
I238
I39
I34
tp1063
a(I81
I4
I238
I39
I34
tp1064
a(I81
I5
I238
I39
I34
tp1065
a(I81
I6
I238
I39
I34
tp1066
a(I81
I7
I238
I39
I34
tp1067
a(I81
I8
I238
I39
I34
tp1068
a(I81
I9
I238
I39
I34
tp1069
a(I81
I10
I238
I39
I34
tp1070
a(I81
I11
I238
I39
I34
tp1071
a(I81
I12
I238
I39
I34
tp1072
a(I81
I13
I238
I39
I34
tp1073
a(I81
I14
I238
I39
I34
tp1074
a(I81
I15
I238
I39
I34
tp1075
a(I81
I16
I238
I39
I34
tp1076
a(I81
I17
I238
I39
I34
tp1077
a(I81
I18
I238
I39
I34
tp1078
a(I81
I19
I238
I39
I34
tp1079
a(I81
I20
I238
I39
I34
tp1080
a(I81
I21
I238
I39
I34
tp1081
a(I81
I22
I238
I39
I34
tp1082
a(I81
I23
I238
I39
I34
tp1083
a(I81
I24
I238
I39
I34
tp1084
a(I81
I25
I238
I39
I34
tp1085
a(I81
I26
I238
I39
I34
tp1086
a(I81
I27
I238
I39
I34
tp1087
a(I81
I28
I238
I39
I34
tp1088
a(I81
I29
I238
I39
I34
tp1089
a(I81
I30
I238
I39
I34
tp1090
a(I81
I31
I238
I39
I34
tp1091
a(I174
I31
I238
I39
I34
tp1092
a(I174
I30
I238
I39
I34
tp1093
a(I174
I29
I238
I39
I34
tp1094
a(I174
I28
I238
I39
I34
tp1095
a(I174
I27
I238
I39
I34
tp1096
a(I174
I26
I238
I39
I34
tp1097
a(I174
I25
I238
I39
I34
tp1098
a(I174
I24
I238
I39
I34
tp1099
a(I174
I23
I238
I39
I34
tp1100
a(I174
I22
I238
I39
I34
tp1101
a(I174
I21
I238
I39
I34
tp1102
a(I174
I20
I238
I39
I34
tp1103
a(I174
I19
I238
I39
I34
tp1104
a(I174
I18
I238
I39
I34
tp1105
a(I174
I17
I238
I39
I34
tp1106
a(I174
I16
I238
I39
I34
tp1107
a(I174
I15
I238
I39
I34
tp1108
a(I174
I14
I238
I39
I34
tp1109
a(I174
I13
I238
I39
I34
tp1110
a(I174
I12
I238
I39
I34
tp1111
a(I174
I11
I238
I39
I34
tp1112
a(I174
I10
I238
I39
I34
tp1113
a(I174
I9
I238
I39
I34
tp1114
a(I174
I8
I238
I39
I34
tp1115
a(I174
I7
I238
I39
I34
tp1116
a(I174
I6
I238
I39
I34
tp1117
a(I174
I5
I238
I39
I34
tp1118
a(I174
I4
I238
I39
I34
tp1119
a(I174
I3
I238
I39
I34
tp1120
a(I174
I2
I238
I39
I34
tp1121
a(I174
I1
I238
I39
I34
tp1122
a(I174
I0
I238
I39
I34
tp1123
a(I209
I0
I238
I39
I34
tp1124
a(I209
I1
I238
I39
I34
tp1125
a(I209
I2
I238
I39
I34
tp1126
a(I209
I3
I238
I39
I34
tp1127
a(I209
I4
I238
I39
I34
tp1128
a(I209
I5
I238
I39
I34
tp1129
a(I209
I6
I238
I39
I34
tp1130
a(I209
I7
I238
I39
I34
tp1131
a(I209
I8
I238
I39
I34
tp1132
a(I209
I9
I238
I39
I34
tp1133
a(I209
I10
I238
I39
I34
tp1134
a(I209
I11
I238
I39
I34
tp1135
a(I209
I12
I238
I39
I34
tp1136
a(I209
I13
I238
I39
I34
tp1137
a(I209
I14
I238
I39
I34
tp1138
a(I209
I15
I238
I39
I34
tp1139
a(I209
I16
I238
I39
I34
tp1140
a(I209
I17
I238
I39
I34
tp1141
a(I209
I18
I239
I39
I34
tp1142
a(I209
I19
I230
I51
I26
tp1143
a(I529
I16
I22
I82
I151
tp1144
a(I529
I17
I21
I81
I150
tp1145
a(I529
I18
I21
I81
I150
tp1146
a(I529
I19
I19
I85
I151
tp1147
a(I622
I30
I239
I37
I33
tp1148
a(I622
I29
I238
I39
I34
tp1149
a(I622
I28
I238
I39
I34
tp1150
a(I622
I27
I238
I39
I34
tp1151
a(I622
I26
I238
I39
I34
tp1152
a(I622
I25
I238
I39
I34
tp1153
a(I622
I24
I238
I40
I33
tp1154
a(I622
I23
I237
I36
I36
tp1155
a(I45
I1
I255
I0
I0
tp1156
a(I45
I0
I239
I39
I35
tp1157
a(I82
I0
I238
I39
I34
tp1158
a(I82
I1
I238
I39
I34
tp1159
a(I82
I2
I238
I39
I34
tp1160
a(I82
I3
I238
I39
I34
tp1161
a(I82
I4
I238
I39
I34
tp1162
a(I82
I5
I238
I39
I34
tp1163
a(I82
I6
I238
I39
I34
tp1164
a(I82
I7
I238
I39
I34
tp1165
a(I82
I8
I238
I39
I34
tp1166
a(I82
I9
I238
I39
I34
tp1167
a(I82
I10
I238
I39
I34
tp1168
a(I82
I11
I238
I39
I34
tp1169
a(I82
I12
I238
I39
I34
tp1170
a(I82
I13
I238
I39
I34
tp1171
a(I82
I14
I238
I39
I34
tp1172
a(I82
I15
I238
I39
I34
tp1173
a(I82
I16
I238
I39
I34
tp1174
a(I82
I17
I238
I39
I34
tp1175
a(I82
I18
I238
I39
I34
tp1176
a(I82
I19
I238
I39
I34
tp1177
a(I82
I20
I238
I39
I34
tp1178
a(I82
I21
I238
I39
I34
tp1179
a(I82
I22
I238
I39
I34
tp1180
a(I82
I23
I238
I39
I34
tp1181
a(I82
I24
I238
I39
I34
tp1182
a(I82
I25
I238
I39
I34
tp1183
a(I82
I26
I238
I39
I34
tp1184
a(I82
I27
I238
I39
I34
tp1185
a(I82
I28
I238
I39
I34
tp1186
a(I82
I29
I238
I39
I34
tp1187
a(I82
I30
I238
I39
I34
tp1188
a(I82
I31
I238
I39
I34
tp1189
a(I173
I31
I238
I39
I34
tp1190
a(I173
I30
I238
I39
I34
tp1191
a(I173
I29
I238
I39
I34
tp1192
a(I173
I28
I238
I39
I34
tp1193
a(I173
I27
I238
I39
I34
tp1194
a(I173
I26
I238
I39
I34
tp1195
a(I173
I25
I238
I39
I34
tp1196
a(I173
I24
I238
I39
I34
tp1197
a(I173
I23
I238
I39
I34
tp1198
a(I173
I22
I238
I39
I34
tp1199
a(I173
I21
I238
I39
I34
tp1200
a(I173
I20
I238
I39
I34
tp1201
a(I173
I19
I238
I39
I34
tp1202
a(I173
I18
I238
I39
I34
tp1203
a(I173
I17
I238
I39
I34
tp1204
a(I173
I16
I238
I39
I34
tp1205
a(I173
I15
I238
I39
I34
tp1206
a(I173
I14
I238
I39
I34
tp1207
a(I173
I13
I238
I39
I34
tp1208
a(I173
I12
I238
I39
I34
tp1209
a(I173
I11
I238
I39
I34
tp1210
a(I173
I10
I238
I39
I34
tp1211
a(I173
I9
I238
I39
I34
tp1212
a(I173
I8
I238
I39
I34
tp1213
a(I173
I7
I238
I39
I34
tp1214
a(I173
I6
I238
I39
I34
tp1215
a(I173
I5
I238
I39
I34
tp1216
a(I173
I4
I238
I39
I34
tp1217
a(I173
I3
I238
I39
I34
tp1218
a(I173
I2
I238
I39
I34
tp1219
a(I173
I1
I238
I39
I34
tp1220
a(I173
I0
I238
I39
I34
tp1221
a(I210
I0
I238
I39
I34
tp1222
a(I210
I1
I238
I39
I34
tp1223
a(I210
I2
I238
I39
I34
tp1224
a(I210
I3
I238
I39
I34
tp1225
a(I210
I4
I238
I39
I34
tp1226
a(I210
I5
I238
I39
I34
tp1227
a(I210
I6
I238
I39
I34
tp1228
a(I210
I7
I238
I39
I34
tp1229
a(I210
I8
I238
I39
I34
tp1230
a(I210
I9
I238
I39
I34
tp1231
a(I210
I10
I238
I39
I34
tp1232
a(I210
I11
I238
I39
I34
tp1233
a(I210
I12
I238
I39
I34
tp1234
a(I210
I13
I238
I39
I34
tp1235
a(I210
I14
I238
I39
I34
tp1236
a(I210
I15
I238
I39
I34
tp1237
a(I210
I16
I238
I39
I34
tp1238
a(I210
I17
I238
I39
I34
tp1239
a(I210
I18
I238
I39
I34
tp1240
a(I210
I19
I238
I39
I34
tp1241
a(I210
I20
I237
I40
I33
tp1242
a(I530
I16
I23
I83
I150
tp1243
a(I530
I17
I21
I81
I150
tp1244
a(I530
I18
I21
I81
I150
tp1245
a(I530
I19
I23
I79
I147
tp1246
a(I621
I31
I238
I40
I34
tp1247
a(I621
I30
I238
I39
I34
tp1248
a(I621
I29
I238
I39
I34
tp1249
a(I621
I28
I238
I39
I34
tp1250
a(I621
I27
I238
I39
I34
tp1251
a(I621
I26
I238
I39
I34
tp1252
a(I621
I25
I239
I39
I34
tp1253
a(I621
I24
I230
I51
I26
tp1254
a(I44
I2
I234
I43
I43
tp1255
a(I44
I1
I238
I39
I35
tp1256
a(I44
I0
I238
I39
I34
tp1257
a(I83
I0
I238
I39
I34
tp1258
a(I83
I1
I238
I39
I34
tp1259
a(I83
I2
I238
I39
I34
tp1260
a(I83
I3
I238
I39
I34
tp1261
a(I83
I4
I238
I39
I34
tp1262
a(I83
I5
I238
I39
I34
tp1263
a(I83
I6
I238
I39
I34
tp1264
a(I83
I7
I238
I39
I34
tp1265
a(I83
I8
I238
I39
I34
tp1266
a(I83
I9
I238
I39
I34
tp1267
a(I83
I10
I238
I39
I34
tp1268
a(I83
I11
I238
I39
I34
tp1269
a(I83
I12
I238
I39
I34
tp1270
a(I83
I13
I238
I39
I34
tp1271
a(I83
I14
I238
I39
I34
tp1272
a(I83
I15
I238
I39
I34
tp1273
a(I83
I16
I238
I39
I34
tp1274
a(I83
I17
I238
I39
I34
tp1275
a(I83
I18
I238
I39
I34
tp1276
a(I83
I19
I238
I39
I34
tp1277
a(I83
I20
I237
I39
I34
tp1278
a(I83
I21
I238
I39
I34
tp1279
a(I83
I22
I238
I39
I33
tp1280
a(I83
I23
I238
I40
I33
tp1281
a(I83
I24
I238
I38
I33
tp1282
a(I83
I25
I238
I38
I33
tp1283
a(I83
I26
I238
I39
I35
tp1284
a(I83
I27
I238
I38
I34
tp1285
a(I83
I28
I239
I38
I35
tp1286
a(I83
I29
I238
I38
I33
tp1287
a(I83
I30
I238
I40
I34
tp1288
a(I83
I31
I238
I40
I34
tp1289
a(I172
I31
I238
I39
I33
tp1290
a(I172
I30
I238
I39
I34
tp1291
a(I172
I29
I238
I39
I34
tp1292
a(I172
I28
I238
I39
I34
tp1293
a(I172
I27
I238
I39
I34
tp1294
a(I172
I26
I238
I39
I34
tp1295
a(I172
I25
I238
I39
I34
tp1296
a(I172
I24
I238
I39
I34
tp1297
a(I172
I23
I238
I39
I34
tp1298
a(I172
I22
I238
I39
I34
tp1299
a(I172
I21
I238
I39
I34
tp1300
a(I172
I20
I238
I39
I34
tp1301
a(I172
I19
I238
I39
I34
tp1302
a(I172
I18
I238
I39
I34
tp1303
a(I172
I17
I238
I39
I34
tp1304
a(I172
I16
I238
I39
I34
tp1305
a(I172
I15
I238
I39
I34
tp1306
a(I172
I14
I238
I39
I34
tp1307
a(I172
I13
I238
I39
I34
tp1308
a(I172
I12
I238
I39
I34
tp1309
a(I172
I11
I238
I39
I34
tp1310
a(I172
I10
I238
I39
I34
tp1311
a(I172
I9
I238
I39
I34
tp1312
a(I172
I8
I238
I39
I34
tp1313
a(I172
I7
I238
I39
I34
tp1314
a(I172
I6
I238
I39
I34
tp1315
a(I172
I5
I238
I39
I34
tp1316
a(I172
I4
I238
I39
I34
tp1317
a(I172
I3
I238
I39
I34
tp1318
a(I172
I2
I238
I39
I34
tp1319
a(I172
I1
I238
I39
I34
tp1320
a(I172
I0
I238
I39
I34
tp1321
a(I211
I0
I238
I39
I34
tp1322
a(I211
I1
I238
I39
I34
tp1323
a(I211
I2
I238
I39
I34
tp1324
a(I211
I3
I238
I39
I34
tp1325
a(I211
I4
I238
I39
I34
tp1326
a(I211
I5
I238
I39
I34
tp1327
a(I211
I6
I238
I39
I34
tp1328
a(I211
I7
I238
I39
I34
tp1329
a(I211
I8
I238
I39
I34
tp1330
a(I211
I9
I238
I39
I34
tp1331
a(I211
I10
I238
I39
I34
tp1332
a(I211
I11
I238
I39
I34
tp1333
a(I211
I12
I238
I39
I34
tp1334
a(I211
I13
I238
I39
I34
tp1335
a(I211
I14
I238
I39
I34
tp1336
a(I211
I15
I238
I39
I34
tp1337
a(I211
I16
I238
I39
I34
tp1338
a(I211
I17
I238
I39
I34
tp1339
a(I211
I18
I238
I39
I34
tp1340
a(I211
I19
I238
I39
I34
tp1341
a(I211
I20
I238
I39
I34
tp1342
a(I211
I21
I238
I38
I34
tp1343
a(I211
I22
I234
I43
I32
tp1344
a(I531
I16
I23
I83
I150
tp1345
a(I531
I17
I21
I81
I150
tp1346
a(I531
I18
I21
I81
I150
tp1347
a(I531
I19
I21
I82
I148
tp1348
a(I531
I30
I238
I43
I34
tp1349
a(I531
I31
I237
I39
I34
tp1350
a(I620
I31
I238
I39
I34
tp1351
a(I620
I30
I238
I39
I34
tp1352
a(I620
I29
I238
I39
I34
tp1353
a(I620
I28
I238
I39
I34
tp1354
a(I620
I27
I238
I39
I34
tp1355
a(I620
I26
I238
I40
I33
tp1356
a(I620
I25
I255
I0
I0
tp1357
a(I43
I3
I240
I39
I31
tp1358
a(I43
I2
I238
I39
I34
tp1359
a(I43
I1
I238
I39
I34
tp1360
a(I43
I0
I238
I39
I34
tp1361
a(I84
I0
I238
I39
I34
tp1362
a(I84
I1
I238
I39
I34
tp1363
a(I84
I2
I238
I39
I34
tp1364
a(I84
I3
I238
I39
I34
tp1365
a(I84
I4
I238
I39
I34
tp1366
a(I84
I5
I238
I39
I34
tp1367
a(I84
I6
I238
I39
I34
tp1368
a(I84
I7
I238
I39
I34
tp1369
a(I84
I8
I238
I39
I34
tp1370
a(I84
I9
I238
I39
I34
tp1371
a(I84
I10
I238
I39
I34
tp1372
a(I84
I11
I238
I39
I34
tp1373
a(I84
I12
I238
I39
I34
tp1374
a(I84
I13
I238
I39
I34
tp1375
a(I84
I14
I238
I39
I34
tp1376
a(I84
I15
I238
I39
I34
tp1377
a(I84
I16
I237
I39
I33
tp1378
a(I84
I17
I237
I39
I33
tp1379
a(I84
I18
I237
I36
I36
tp1380
a(I84
I19
I255
I43
I43
tp1381
a(I171
I29
I230
I51
I26
tp1382
a(I171
I28
I237
I36
I36
tp1383
a(I171
I27
I238
I40
I34
tp1384
a(I171
I26
I238
I38
I34
tp1385
a(I171
I25
I237
I40
I34
tp1386
a(I171
I24
I238
I39
I34
tp1387
a(I171
I23
I238
I39
I34
tp1388
a(I171
I22
I238
I39
I34
tp1389
a(I171
I21
I238
I39
I34
tp1390
a(I171
I20
I238
I39
I34
tp1391
a(I171
I19
I238
I39
I34
tp1392
a(I171
I18
I238
I39
I34
tp1393
a(I171
I17
I238
I39
I34
tp1394
a(I171
I16
I238
I39
I34
tp1395
a(I171
I15
I238
I39
I34
tp1396
a(I171
I14
I238
I39
I34
tp1397
a(I171
I13
I238
I39
I34
tp1398
a(I171
I12
I238
I39
I34
tp1399
a(I171
I11
I238
I39
I34
tp1400
a(I171
I10
I238
I39
I34
tp1401
a(I171
I9
I238
I39
I34
tp1402
a(I171
I8
I238
I39
I34
tp1403
a(I171
I7
I238
I39
I34
tp1404
a(I171
I6
I238
I39
I34
tp1405
a(I171
I5
I238
I39
I34
tp1406
a(I171
I4
I238
I39
I34
tp1407
a(I171
I3
I238
I39
I34
tp1408
a(I171
I2
I238
I39
I34
tp1409
a(I171
I1
I238
I39
I34
tp1410
a(I171
I0
I238
I39
I34
tp1411
a(I212
I0
I238
I39
I34
tp1412
a(I212
I1
I238
I39
I34
tp1413
a(I212
I2
I238
I39
I34
tp1414
a(I212
I3
I238
I39
I34
tp1415
a(I212
I4
I238
I39
I34
tp1416
a(I212
I5
I238
I39
I34
tp1417
a(I212
I6
I238
I39
I34
tp1418
a(I212
I7
I238
I39
I34
tp1419
a(I212
I8
I238
I39
I34
tp1420
a(I212
I9
I238
I39
I34
tp1421
a(I212
I10
I238
I39
I34
tp1422
a(I212
I11
I238
I39
I34
tp1423
a(I212
I12
I238
I39
I34
tp1424
a(I212
I13
I238
I39
I34
tp1425
a(I212
I14
I238
I39
I34
tp1426
a(I212
I15
I238
I39
I34
tp1427
a(I212
I16
I238
I39
I34
tp1428
a(I212
I17
I238
I39
I34
tp1429
a(I212
I18
I238
I39
I34
tp1430
a(I212
I19
I238
I39
I34
tp1431
a(I212
I20
I238
I39
I34
tp1432
a(I212
I21
I238
I39
I34
tp1433
a(I212
I22
I238
I39
I34
tp1434
a(I212
I23
I238
I39
I34
tp1435
a(I212
I24
I255
I0
I0
tp1436
a(I532
I16
I21
I82
I148
tp1437
a(I532
I17
I21
I81
I150
tp1438
a(I532
I18
I21
I81
I150
tp1439
a(I532
I19
I22
I80
I150
tp1440
a(I532
I28
I240
I36
I36
tp1441
a(I532
I29
I239
I39
I34
tp1442
a(I532
I30
I238
I39
I34
tp1443
a(I532
I31
I238
I39
I34
tp1444
a(I619
I31
I238
I39
I34
tp1445
a(I619
I30
I238
I39
I34
tp1446
a(I619
I29
I238
I39
I34
tp1447
a(I619
I28
I238
I39
I34
tp1448
a(I619
I27
I239
I39
I36
tp1449
a(I42
I4
I238
I39
I33
tp1450
a(I42
I3
I239
I38
I34
tp1451
a(I42
I2
I238
I39
I34
tp1452
a(I42
I1
I238
I39
I34
tp1453
a(I42
I0
I238
I39
I34
tp1454
a(I85
I0
I238
I39
I34
tp1455
a(I85
I1
I238
I39
I34
tp1456
a(I85
I2
I238
I39
I34
tp1457
a(I85
I3
I238
I39
I34
tp1458
a(I85
I4
I238
I39
I34
tp1459
a(I85
I5
I238
I39
I34
tp1460
a(I85
I6
I238
I39
I34
tp1461
a(I85
I7
I238
I39
I34
tp1462
a(I85
I8
I238
I39
I34
tp1463
a(I85
I9
I238
I39
I34
tp1464
a(I85
I10
I239
I38
I34
tp1465
a(I85
I11
I237
I38
I34
tp1466
a(I85
I12
I239
I39
I34
tp1467
a(I85
I13
I240
I36
I36
tp1468
a(I170
I23
I237
I36
I36
tp1469
a(I170
I22
I237
I40
I34
tp1470
a(I170
I21
I238
I39
I34
tp1471
a(I170
I20
I238
I39
I35
tp1472
a(I170
I19
I238
I39
I34
tp1473
a(I170
I18
I238
I39
I34
tp1474
a(I170
I17
I238
I39
I34
tp1475
a(I170
I16
I238
I39
I34
tp1476
a(I170
I15
I238
I39
I34
tp1477
a(I170
I14
I238
I39
I34
tp1478
a(I170
I13
I238
I39
I34
tp1479
a(I170
I12
I238
I39
I34
tp1480
a(I170
I11
I238
I39
I34
tp1481
a(I170
I10
I238
I39
I34
tp1482
a(I170
I9
I238
I39
I34
tp1483
a(I170
I8
I238
I39
I34
tp1484
a(I170
I7
I238
I39
I34
tp1485
a(I170
I6
I238
I39
I34
tp1486
a(I170
I5
I238
I39
I34
tp1487
a(I170
I4
I238
I39
I34
tp1488
a(I170
I3
I238
I39
I34
tp1489
a(I170
I2
I238
I39
I34
tp1490
a(I170
I1
I238
I39
I34
tp1491
a(I170
I0
I238
I39
I34
tp1492
a(I213
I0
I238
I39
I34
tp1493
a(I213
I1
I238
I39
I34
tp1494
a(I213
I2
I238
I39
I34
tp1495
a(I213
I3
I238
I39
I34
tp1496
a(I213
I4
I238
I39
I34
tp1497
a(I213
I5
I238
I39
I34
tp1498
a(I213
I6
I238
I39
I34
tp1499
a(I213
I7
I238
I39
I34
tp1500
a(I213
I8
I238
I39
I34
tp1501
a(I213
I9
I238
I39
I34
tp1502
a(I213
I10
I238
I39
I34
tp1503
a(I213
I11
I238
I39
I34
tp1504
a(I213
I12
I238
I39
I34
tp1505
a(I213
I13
I238
I39
I34
tp1506
a(I213
I14
I238
I39
I34
tp1507
a(I213
I15
I238
I39
I34
tp1508
a(I213
I16
I238
I39
I34
tp1509
a(I213
I17
I238
I39
I34
tp1510
a(I213
I18
I238
I39
I34
tp1511
a(I213
I19
I238
I39
I34
tp1512
a(I213
I20
I238
I39
I34
tp1513
a(I213
I21
I238
I39
I34
tp1514
a(I213
I22
I238
I39
I34
tp1515
a(I213
I23
I238
I39
I34
tp1516
a(I213
I24
I238
I39
I34
tp1517
a(I213
I25
I238
I40
I34
tp1518
a(I533
I16
I20
I80
I150
tp1519
a(I533
I17
I21
I81
I150
tp1520
a(I533
I18
I21
I81
I150
tp1521
a(I533
I19
I21
I81
I151
tp1522
a(I533
I26
I240
I40
I35
tp1523
a(I533
I27
I238
I39
I33
tp1524
a(I533
I28
I238
I39
I34
tp1525
a(I533
I29
I238
I39
I34
tp1526
a(I533
I30
I238
I39
I34
tp1527
a(I533
I31
I238
I39
I34
tp1528
a(I618
I31
I238
I39
I34
tp1529
a(I618
I30
I238
I39
I34
tp1530
a(I618
I29
I238
I39
I34
tp1531
a(I618
I28
I238
I40
I34
tp1532
a(I41
I5
I239
I39
I35
tp1533
a(I41
I4
I238
I39
I34
tp1534
a(I41
I3
I238
I39
I34
tp1535
a(I41
I2
I238
I39
I34
tp1536
a(I41
I1
I238
I39
I34
tp1537
a(I41
I0
I238
I39
I34
tp1538
a(I86
I0
I238
I39
I34
tp1539
a(I86
I1
I238
I39
I34
tp1540
a(I86
I2
I238
I39
I34
tp1541
a(I86
I3
I238
I39
I34
tp1542
a(I86
I4
I238
I39
I34
tp1543
a(I86
I5
I238
I39
I34
tp1544
a(I86
I6
I238
I39
I34
tp1545
a(I86
I7
I239
I39
I34
tp1546
a(I86
I8
I238
I39
I34
tp1547
a(I86
I9
I237
I41
I32
tp1548
a(I86
I10
I255
I0
I0
tp1549
a(I169
I20
I255
I0
I0
tp1550
a(I169
I19
I239
I36
I36
tp1551
a(I169
I18
I239
I39
I35
tp1552
a(I169
I17
I239
I39
I34
tp1553
a(I169
I16
I238
I39
I34
tp1554
a(I169
I15
I238
I39
I34
tp1555
a(I169
I14
I238
I39
I34
tp1556
a(I169
I13
I238
I39
I34
tp1557
a(I169
I12
I238
I39
I34
tp1558
a(I169
I11
I238
I39
I34
tp1559
a(I169
I10
I238
I39
I34
tp1560
a(I169
I9
I238
I39
I34
tp1561
a(I169
I8
I238
I39
I34
tp1562
a(I169
I7
I238
I39
I34
tp1563
a(I169
I6
I238
I39
I34
tp1564
a(I169
I5
I238
I39
I34
tp1565
a(I169
I4
I238
I39
I34
tp1566
a(I169
I3
I238
I39
I34
tp1567
a(I169
I2
I238
I39
I34
tp1568
a(I169
I1
I238
I39
I34
tp1569
a(I169
I0
I238
I39
I34
tp1570
a(I214
I0
I238
I39
I34
tp1571
a(I214
I1
I238
I39
I34
tp1572
a(I214
I2
I238
I39
I34
tp1573
a(I214
I3
I238
I39
I34
tp1574
a(I214
I4
I238
I39
I34
tp1575
a(I214
I5
I238
I39
I34
tp1576
a(I214
I6
I238
I39
I34
tp1577
a(I214
I7
I238
I39
I34
tp1578
a(I214
I8
I238
I39
I34
tp1579
a(I214
I9
I238
I39
I34
tp1580
a(I214
I10
I238
I39
I34
tp1581
a(I214
I11
I238
I39
I34
tp1582
a(I214
I12
I238
I39
I34
tp1583
a(I214
I13
I238
I39
I34
tp1584
a(I214
I14
I238
I39
I34
tp1585
a(I214
I15
I238
I39
I34
tp1586
a(I214
I16
I238
I39
I34
tp1587
a(I214
I17
I238
I39
I34
tp1588
a(I214
I18
I238
I39
I34
tp1589
a(I214
I19
I238
I39
I34
tp1590
a(I214
I20
I238
I39
I34
tp1591
a(I214
I21
I238
I39
I34
tp1592
a(I214
I22
I238
I39
I34
tp1593
a(I214
I23
I238
I39
I34
tp1594
a(I214
I24
I238
I39
I34
tp1595
a(I214
I25
I238
I39
I34
tp1596
a(I214
I26
I238
I39
I33
tp1597
a(I214
I27
I240
I39
I35
tp1598
a(I534
I16
I20
I80
I150
tp1599
a(I534
I17
I21
I81
I150
tp1600
a(I534
I18
I21
I81
I150
tp1601
a(I534
I19
I20
I82
I151
tp1602
a(I534
I23
I255
I64
I64
tp1603
a(I534
I24
I237
I38
I35
tp1604
a(I534
I25
I238
I39
I33
tp1605
a(I534
I26
I238
I39
I34
tp1606
a(I534
I27
I238
I39
I34
tp1607
a(I534
I28
I238
I39
I34
tp1608
a(I534
I29
I238
I39
I34
tp1609
a(I534
I30
I238
I39
I34
tp1610
a(I534
I31
I238
I39
I34
tp1611
a(I617
I31
I238
I39
I34
tp1612
a(I617
I30
I237
I39
I34
tp1613
a(I617
I29
I243
I36
I36
tp1614
a(I40
I6
I238
I40
I34
tp1615
a(I40
I5
I238
I39
I34
tp1616
a(I40
I4
I238
I39
I34
tp1617
a(I40
I3
I238
I39
I34
tp1618
a(I40
I2
I238
I39
I34
tp1619
a(I40
I1
I238
I39
I34
tp1620
a(I40
I0
I238
I39
I34
tp1621
a(I87
I0
I238
I39
I34
tp1622
a(I87
I1
I238
I39
I34
tp1623
a(I87
I2
I238
I39
I34
tp1624
a(I87
I3
I238
I39
I34
tp1625
a(I87
I4
I238
I39
I34
tp1626
a(I87
I5
I238
I39
I34
tp1627
a(I87
I6
I236
I37
I32
tp1628
a(I168
I16
I235
I39
I33
tp1629
a(I168
I15
I238
I39
I34
tp1630
a(I168
I14
I239
I38
I34
tp1631
a(I168
I13
I238
I39
I34
tp1632
a(I168
I12
I238
I39
I34
tp1633
a(I168
I11
I238
I39
I34
tp1634
a(I168
I10
I238
I39
I34
tp1635
a(I168
I9
I238
I39
I34
tp1636
a(I168
I8
I238
I39
I34
tp1637
a(I168
I7
I238
I39
I34
tp1638
a(I168
I6
I238
I39
I34
tp1639
a(I168
I5
I238
I39
I34
tp1640
a(I168
I4
I238
I39
I34
tp1641
a(I168
I3
I238
I39
I34
tp1642
a(I168
I2
I238
I39
I34
tp1643
a(I168
I1
I238
I39
I34
tp1644
a(I168
I0
I238
I39
I34
tp1645
a(I215
I0
I238
I39
I34
tp1646
a(I215
I1
I238
I39
I34
tp1647
a(I215
I2
I238
I39
I34
tp1648
a(I215
I3
I238
I39
I34
tp1649
a(I215
I4
I238
I39
I34
tp1650
a(I215
I5
I238
I39
I34
tp1651
a(I215
I6
I238
I39
I34
tp1652
a(I215
I7
I238
I39
I34
tp1653
a(I215
I8
I238
I39
I34
tp1654
a(I215
I9
I238
I39
I34
tp1655
a(I215
I10
I238
I39
I34
tp1656
a(I215
I11
I238
I39
I34
tp1657
a(I215
I12
I238
I39
I34
tp1658
a(I215
I13
I238
I39
I34
tp1659
a(I215
I14
I238
I39
I34
tp1660
a(I215
I15
I238
I39
I34
tp1661
a(I215
I16
I238
I39
I34
tp1662
a(I215
I17
I238
I39
I34
tp1663
a(I215
I18
I238
I39
I34
tp1664
a(I215
I19
I238
I39
I34
tp1665
a(I215
I20
I238
I39
I34
tp1666
a(I215
I21
I238
I39
I34
tp1667
a(I215
I22
I238
I39
I34
tp1668
a(I215
I23
I238
I39
I34
tp1669
a(I215
I24
I238
I39
I34
tp1670
a(I215
I25
I238
I39
I34
tp1671
a(I215
I26
I238
I39
I34
tp1672
a(I215
I27
I238
I39
I34
tp1673
a(I215
I28
I237
I39
I34
tp1674
a(I215
I29
I237
I41
I33
tp1675
a(I535
I16
I23
I81
I151
tp1676
a(I535
I17
I21
I81
I150
tp1677
a(I535
I18
I21
I81
I150
tp1678
a(I535
I19
I21
I81
I150
tp1679
a(I535
I21
I240
I39
I31
tp1680
a(I535
I22
I238
I39
I35
tp1681
a(I535
I23
I238
I39
I34
tp1682
a(I535
I24
I238
I39
I34
tp1683
a(I535
I25
I238
I39
I34
tp1684
a(I535
I26
I238
I39
I34
tp1685
a(I535
I27
I238
I39
I34
tp1686
a(I535
I28
I238
I39
I34
tp1687
a(I535
I29
I238
I39
I34
tp1688
a(I535
I30
I238
I39
I34
tp1689
a(I535
I31
I238
I39
I34
tp1690
a(I616
I31
I237
I40
I34
tp1691
a(I616
I30
I255
I0
I0
tp1692
a(I39
I7
I237
I40
I33
tp1693
a(I39
I6
I238
I39
I34
tp1694
a(I39
I5
I238
I39
I34
tp1695
a(I39
I4
I238
I39
I34
tp1696
a(I39
I3
I238
I39
I34
tp1697
a(I39
I2
I238
I39
I34
tp1698
a(I39
I1
I238
I39
I34
tp1699
a(I39
I0
I238
I39
I34
tp1700
a(I88
I0
I238
I39
I34
tp1701
a(I88
I1
I238
I39
I34
tp1702
a(I88
I2
I238
I39
I34
tp1703
a(I88
I3
I239
I40
I35
tp1704
a(I88
I4
I230
I51
I26
tp1705
a(I167
I14
I255
I51
I51
tp1706
a(I167
I13
I239
I39
I33
tp1707
a(I167
I12
I238
I39
I35
tp1708
a(I167
I11
I238
I39
I34
tp1709
a(I167
I10
I238
I39
I34
tp1710
a(I167
I9
I238
I39
I34
tp1711
a(I167
I8
I238
I39
I34
tp1712
a(I167
I7
I238
I39
I34
tp1713
a(I167
I6
I238
I39
I34
tp1714
a(I167
I5
I238
I39
I34
tp1715
a(I167
I4
I238
I39
I34
tp1716
a(I167
I3
I238
I39
I34
tp1717
a(I167
I2
I238
I39
I34
tp1718
a(I167
I1
I238
I39
I34
tp1719
a(I167
I0
I238
I39
I34
tp1720
a(I216
I0
I238
I39
I34
tp1721
a(I216
I1
I238
I39
I34
tp1722
a(I216
I2
I238
I39
I34
tp1723
a(I216
I3
I238
I39
I34
tp1724
a(I216
I4
I238
I39
I34
tp1725
a(I216
I5
I238
I39
I34
tp1726
a(I216
I6
I238
I39
I34
tp1727
a(I216
I7
I238
I39
I34
tp1728
a(I216
I8
I238
I39
I34
tp1729
a(I216
I9
I238
I39
I34
tp1730
a(I216
I10
I238
I39
I34
tp1731
a(I216
I11
I238
I39
I34
tp1732
a(I216
I12
I238
I39
I34
tp1733
a(I216
I13
I238
I39
I34
tp1734
a(I216
I14
I238
I39
I34
tp1735
a(I216
I15
I238
I39
I34
tp1736
a(I216
I16
I238
I39
I34
tp1737
a(I216
I17
I238
I39
I34
tp1738
a(I216
I18
I238
I39
I34
tp1739
a(I216
I19
I238
I39
I34
tp1740
a(I216
I20
I238
I39
I34
tp1741
a(I216
I21
I238
I39
I34
tp1742
a(I216
I22
I238
I39
I34
tp1743
a(I216
I23
I238
I39
I34
tp1744
a(I216
I24
I238
I39
I34
tp1745
a(I216
I25
I238
I39
I34
tp1746
a(I216
I26
I238
I39
I34
tp1747
a(I216
I27
I238
I39
I34
tp1748
a(I216
I28
I238
I39
I34
tp1749
a(I216
I29
I238
I39
I34
tp1750
a(I216
I30
I238
I38
I34
tp1751
a(I216
I31
I238
I40
I33
tp1752
a(I423
I31
I235
I39
I39
tp1753
a(I536
I16
I23
I83
I150
tp1754
a(I536
I17
I21
I81
I150
tp1755
a(I536
I18
I21
I81
I150
tp1756
a(I536
I19
I65
I73
I127
tp1757
a(I536
I20
I238
I39
I33
tp1758
a(I536
I21
I238
I39
I34
tp1759
a(I536
I22
I238
I39
I34
tp1760
a(I536
I23
I238
I39
I34
tp1761
a(I536
I24
I238
I39
I34
tp1762
a(I536
I25
I238
I39
I34
tp1763
a(I536
I26
I238
I39
I34
tp1764
a(I536
I27
I238
I39
I34
tp1765
a(I536
I28
I238
I39
I34
tp1766
a(I536
I29
I238
I39
I34
tp1767
a(I536
I30
I238
I39
I34
tp1768
a(I536
I31
I239
I38
I34
tp1769
a(I38
I9
I255
I0
I0
tp1770
a(I38
I8
I239
I40
I34
tp1771
a(I38
I7
I238
I39
I34
tp1772
a(I38
I6
I238
I39
I34
tp1773
a(I38
I5
I238
I39
I34
tp1774
a(I38
I4
I238
I39
I34
tp1775
a(I38
I3
I238
I39
I34
tp1776
a(I38
I2
I238
I39
I34
tp1777
a(I38
I1
I238
I39
I34
tp1778
a(I38
I0
I238
I39
I34
tp1779
a(I89
I0
I238
I39
I34
tp1780
a(I89
I1
I240
I39
I35
tp1781
a(I89
I2
I255
I0
I0
tp1782
a(I166
I11
I236
I38
I32
tp1783
a(I166
I10
I237
I39
I34
tp1784
a(I166
I9
I238
I39
I34
tp1785
a(I166
I8
I238
I39
I34
tp1786
a(I166
I7
I238
I39
I34
tp1787
a(I166
I6
I238
I39
I34
tp1788
a(I166
I5
I238
I39
I34
tp1789
a(I166
I4
I238
I39
I34
tp1790
a(I166
I3
I238
I39
I34
tp1791
a(I166
I2
I238
I39
I34
tp1792
a(I166
I1
I238
I39
I34
tp1793
a(I166
I0
I238
I39
I34
tp1794
a(I217
I0
I238
I39
I34
tp1795
a(I217
I1
I238
I39
I34
tp1796
a(I217
I2
I238
I39
I34
tp1797
a(I217
I3
I238
I39
I34
tp1798
a(I217
I4
I238
I39
I34
tp1799
a(I217
I5
I238
I39
I34
tp1800
a(I217
I6
I238
I39
I34
tp1801
a(I217
I7
I238
I39
I34
tp1802
a(I217
I8
I238
I39
I34
tp1803
a(I217
I9
I238
I39
I34
tp1804
a(I217
I10
I238
I39
I34
tp1805
a(I217
I11
I238
I39
I34
tp1806
a(I217
I12
I238
I39
I34
tp1807
a(I217
I13
I238
I39
I34
tp1808
a(I217
I14
I238
I39
I34
tp1809
a(I217
I15
I238
I39
I34
tp1810
a(I217
I16
I238
I39
I34
tp1811
a(I217
I17
I238
I39
I34
tp1812
a(I217
I18
I238
I39
I34
tp1813
a(I217
I19
I238
I39
I34
tp1814
a(I217
I20
I238
I39
I34
tp1815
a(I217
I21
I238
I39
I34
tp1816
a(I217
I22
I238
I39
I34
tp1817
a(I217
I23
I238
I39
I34
tp1818
a(I217
I24
I238
I39
I34
tp1819
a(I217
I25
I238
I39
I34
tp1820
a(I217
I26
I238
I39
I34
tp1821
a(I217
I27
I238
I39
I34
tp1822
a(I217
I28
I238
I39
I34
tp1823
a(I217
I29
I238
I39
I34
tp1824
a(I217
I30
I238
I39
I34
tp1825
a(I217
I31
I238
I39
I34
tp1826
a(I422
I31
I238
I39
I34
tp1827
a(I422
I30
I238
I40
I34
tp1828
a(I422
I29
I236
I37
I32
tp1829
a(I422
I28
I255
I0
I0
tp1830
a(I537
I15
I235
I39
I39
tp1831
a(I537
I16
I156
I55
I78
tp1832
a(I537
I17
I21
I81
I150
tp1833
a(I537
I18
I21
I81
I150
tp1834
a(I537
I19
I95
I66
I111
tp1835
a(I537
I20
I238
I39
I34
tp1836
a(I537
I21
I238
I39
I34
tp1837
a(I537
I22
I238
I39
I34
tp1838
a(I537
I23
I238
I39
I34
tp1839
a(I537
I24
I238
I39
I34
tp1840
a(I537
I25
I238
I39
I34
tp1841
a(I537
I26
I238
I39
I34
tp1842
a(I537
I27
I238
I39
I34
tp1843
a(I537
I28
I238
I39
I34
tp1844
a(I537
I29
I238
I39
I34
tp1845
a(I537
I30
I239
I38
I34
tp1846
a(I537
I31
I235
I41
I31
tp1847
a(I37
I10
I255
I0
I0
tp1848
a(I37
I9
I238
I39
I34
tp1849
a(I37
I8
I238
I39
I34
tp1850
a(I37
I7
I238
I39
I34
tp1851
a(I37
I6
I238
I39
I34
tp1852
a(I37
I5
I238
I39
I34
tp1853
a(I37
I4
I238
I39
I34
tp1854
a(I37
I3
I238
I39
I34
tp1855
a(I37
I2
I238
I39
I34
tp1856
a(I37
I1
I238
I39
I34
tp1857
a(I37
I0
I236
I38
I34
tp1858
a(I165
I9
I239
I41
I33
tp1859
a(I165
I8
I237
I39
I34
tp1860
a(I165
I7
I238
I39
I34
tp1861
a(I165
I6
I238
I39
I34
tp1862
a(I165
I5
I238
I39
I34
tp1863
a(I165
I4
I238
I39
I34
tp1864
a(I165
I3
I238
I39
I34
tp1865
a(I165
I2
I238
I39
I34
tp1866
a(I165
I1
I238
I39
I34
tp1867
a(I165
I0
I238
I39
I34
tp1868
a(I218
I0
I238
I39
I34
tp1869
a(I218
I1
I238
I39
I34
tp1870
a(I218
I2
I238
I39
I34
tp1871
a(I218
I3
I238
I39
I34
tp1872
a(I218
I4
I238
I39
I34
tp1873
a(I218
I5
I238
I39
I34
tp1874
a(I218
I6
I238
I39
I34
tp1875
a(I218
I7
I238
I39
I34
tp1876
a(I218
I8
I238
I39
I34
tp1877
a(I218
I9
I238
I39
I34
tp1878
a(I218
I10
I238
I39
I34
tp1879
a(I218
I11
I238
I39
I34
tp1880
a(I218
I12
I238
I39
I34
tp1881
a(I218
I13
I238
I39
I34
tp1882
a(I218
I14
I238
I39
I34
tp1883
a(I218
I15
I238
I39
I34
tp1884
a(I218
I16
I238
I39
I34
tp1885
a(I218
I17
I238
I39
I34
tp1886
a(I218
I18
I238
I39
I34
tp1887
a(I218
I19
I238
I39
I34
tp1888
a(I218
I20
I238
I39
I34
tp1889
a(I218
I21
I238
I39
I34
tp1890
a(I218
I22
I238
I39
I34
tp1891
a(I218
I23
I238
I39
I34
tp1892
a(I218
I24
I238
I39
I34
tp1893
a(I218
I25
I238
I39
I34
tp1894
a(I218
I26
I238
I39
I34
tp1895
a(I218
I27
I238
I39
I34
tp1896
a(I218
I28
I238
I39
I34
tp1897
a(I218
I29
I238
I39
I34
tp1898
a(I218
I30
I238
I39
I34
tp1899
a(I218
I31
I238
I39
I34
tp1900
a(I421
I31
I238
I39
I34
tp1901
a(I421
I30
I238
I39
I34
tp1902
a(I421
I29
I238
I39
I34
tp1903
a(I421
I28
I238
I39
I34
tp1904
a(I421
I27
I239
I40
I34
tp1905
a(I421
I26
I237
I40
I36
tp1906
a(I421
I25
I255
I0
I0
tp1907
a(I538
I12
I237
I36
I36
tp1908
a(I538
I13
I237
I40
I33
tp1909
a(I538
I14
I239
I40
I34
tp1910
a(I538
I15
I238
I39
I34
tp1911
a(I538
I16
I194
I47
I57
tp1912
a(I538
I17
I21
I81
I150
tp1913
a(I538
I18
I21
I81
I150
tp1914
a(I538
I19
I79
I70
I118
tp1915
a(I538
I20
I238
I39
I34
tp1916
a(I538
I21
I238
I39
I34
tp1917
a(I538
I22
I238
I39
I34
tp1918
a(I538
I23
I238
I39
I34
tp1919
a(I538
I24
I238
I39
I34
tp1920
a(I538
I25
I238
I39
I34
tp1921
a(I538
I26
I238
I39
I34
tp1922
a(I538
I27
I238
I39
I34
tp1923
a(I538
I28
I238
I39
I34
tp1924
a(I538
I29
I238
I39
I33
tp1925
a(I538
I30
I255
I0
I0
tp1926
a(I36
I11
I255
I0
I0
tp1927
a(I36
I10
I238
I39
I34
tp1928
a(I36
I9
I238
I39
I34
tp1929
a(I36
I8
I238
I39
I34
tp1930
a(I36
I7
I238
I39
I34
tp1931
a(I36
I6
I238
I39
I34
tp1932
a(I36
I5
I238
I39
I34
tp1933
a(I36
I4
I238
I39
I34
tp1934
a(I36
I3
I237
I39
I34
tp1935
a(I36
I2
I236
I37
I32
tp1936
a(I164
I7
I243
I36
I36
tp1937
a(I164
I6
I238
I38
I35
tp1938
a(I164
I5
I238
I39
I34
tp1939
a(I164
I4
I238
I39
I34
tp1940
a(I164
I3
I238
I39
I34
tp1941
a(I164
I2
I238
I39
I34
tp1942
a(I164
I1
I238
I39
I34
tp1943
a(I164
I0
I238
I39
I34
tp1944
a(I219
I0
I238
I39
I34
tp1945
a(I219
I1
I238
I39
I34
tp1946
a(I219
I2
I238
I39
I34
tp1947
a(I219
I3
I238
I39
I34
tp1948
a(I219
I4
I238
I39
I34
tp1949
a(I219
I5
I238
I39
I34
tp1950
a(I219
I6
I238
I39
I34
tp1951
a(I219
I7
I238
I39
I34
tp1952
a(I219
I8
I238
I39
I34
tp1953
a(I219
I9
I238
I39
I34
tp1954
a(I219
I10
I238
I39
I34
tp1955
a(I219
I11
I238
I39
I34
tp1956
a(I219
I12
I238
I39
I34
tp1957
a(I219
I13
I238
I39
I34
tp1958
a(I219
I14
I238
I39
I34
tp1959
a(I219
I15
I238
I39
I34
tp1960
a(I219
I16
I238
I39
I34
tp1961
a(I219
I17
I238
I39
I34
tp1962
a(I219
I18
I238
I39
I34
tp1963
a(I219
I19
I238
I39
I34
tp1964
a(I219
I20
I238
I39
I34
tp1965
a(I219
I21
I238
I39
I34
tp1966
a(I219
I22
I238
I39
I34
tp1967
a(I219
I23
I238
I39
I34
tp1968
a(I219
I24
I238
I39
I34
tp1969
a(I219
I25
I238
I39
I34
tp1970
a(I219
I26
I238
I39
I34
tp1971
a(I219
I27
I238
I39
I34
tp1972
a(I219
I28
I238
I39
I34
tp1973
a(I219
I29
I238
I39
I34
tp1974
a(I219
I30
I238
I39
I34
tp1975
a(I219
I31
I238
I39
I34
tp1976
a(I420
I31
I238
I39
I34
tp1977
a(I420
I30
I238
I39
I34
tp1978
a(I420
I29
I238
I39
I34
tp1979
a(I420
I28
I238
I39
I34
tp1980
a(I420
I27
I238
I39
I34
tp1981
a(I420
I26
I238
I39
I34
tp1982
a(I420
I25
I238
I39
I34
tp1983
a(I420
I24
I238
I40
I33
tp1984
a(I420
I23
I237
I39
I34
tp1985
a(I420
I22
I240
I36
I36
tp1986
a(I539
I7
I255
I0
I0
tp1987
a(I539
I8
I238
I40
I34
tp1988
a(I539
I9
I238
I39
I34
tp1989
a(I539
I10
I238
I39
I34
tp1990
a(I539
I11
I238
I39
I34
tp1991
a(I539
I12
I238
I39
I34
tp1992
a(I539
I13
I238
I39
I34
tp1993
a(I539
I14
I238
I39
I34
tp1994
a(I539
I15
I238
I39
I34
tp1995
a(I539
I16
I194
I47
I57
tp1996
a(I539
I17
I21
I81
I150
tp1997
a(I539
I18
I21
I81
I150
tp1998
a(I539
I19
I75
I71
I121
tp1999
a(I539
I20
I238
I39
I34
tp2000
a(I539
I21
I238
I39
I34
tp2001
a(I539
I22
I238
I39
I34
tp2002
a(I539
I23
I238
I39
I34
tp2003
a(I539
I24
I238
I39
I34
tp2004
a(I539
I25
I238
I39
I34
tp2005
a(I539
I26
I238
I39
I34
tp2006
a(I539
I27
I238
I39
I34
tp2007
a(I539
I28
I240
I39
I35
tp2008
a(I35
I12
I255
I0
I0
tp2009
a(I35
I11
I238
I40
I33
tp2010
a(I35
I10
I238
I39
I34
tp2011
a(I35
I9
I238
I39
I34
tp2012
a(I35
I8
I238
I39
I34
tp2013
a(I35
I7
I238
I39
I34
tp2014
a(I35
I6
I238
I39
I34
tp2015
a(I35
I5
I238
I39
I34
tp2016
a(I35
I4
I239
I39
I33
tp2017
a(I163
I5
I237
I42
I36
tp2018
a(I163
I4
I238
I39
I34
tp2019
a(I163
I3
I238
I39
I34
tp2020
a(I163
I2
I238
I39
I34
tp2021
a(I163
I1
I238
I39
I34
tp2022
a(I163
I0
I238
I39
I34
tp2023
a(I220
I0
I238
I39
I34
tp2024
a(I220
I1
I238
I39
I34
tp2025
a(I220
I2
I238
I39
I34
tp2026
a(I220
I3
I238
I39
I34
tp2027
a(I220
I4
I238
I39
I34
tp2028
a(I220
I5
I238
I39
I34
tp2029
a(I220
I6
I238
I39
I34
tp2030
a(I220
I7
I238
I39
I34
tp2031
a(I220
I8
I238
I39
I34
tp2032
a(I220
I9
I238
I39
I34
tp2033
a(I220
I10
I238
I39
I34
tp2034
a(I220
I11
I238
I39
I34
tp2035
a(I220
I12
I238
I39
I34
tp2036
a(I220
I13
I238
I39
I34
tp2037
a(I220
I14
I238
I39
I34
tp2038
a(I220
I15
I238
I39
I34
tp2039
a(I220
I16
I238
I39
I34
tp2040
a(I220
I17
I238
I39
I34
tp2041
a(I220
I18
I238
I39
I34
tp2042
a(I220
I19
I238
I39
I34
tp2043
a(I220
I20
I238
I39
I34
tp2044
a(I220
I21
I238
I39
I34
tp2045
a(I220
I22
I238
I39
I34
tp2046
a(I220
I23
I238
I39
I34
tp2047
a(I220
I24
I238
I39
I34
tp2048
a(I220
I25
I238
I39
I34
tp2049
a(I220
I26
I238
I39
I34
tp2050
a(I220
I27
I238
I39
I34
tp2051
a(I220
I28
I238
I39
I34
tp2052
a(I220
I29
I238
I39
I34
tp2053
a(I220
I30
I238
I39
I34
tp2054
a(I220
I31
I238
I39
I34
tp2055
a(I419
I31
I238
I39
I34
tp2056
a(I419
I30
I238
I39
I34
tp2057
a(I419
I29
I238
I39
I34
tp2058
a(I419
I28
I238
I39
I34
tp2059
a(I419
I27
I238
I39
I34
tp2060
a(I419
I26
I238
I39
I34
tp2061
a(I419
I25
I238
I39
I34
tp2062
a(I419
I24
I238
I39
I34
tp2063
a(I419
I23
I238
I39
I34
tp2064
a(I419
I22
I238
I39
I34
tp2065
a(I419
I21
I238
I39
I34
tp2066
a(I419
I20
I238
I40
I34
tp2067
a(I419
I19
I238
I39
I33
tp2068
a(I419
I18
I239
I38
I35
tp2069
a(I419
I17
I235
I40
I34
tp2070
a(I419
I16
I255
I64
I64
tp2071
a(I540
I2
I241
I43
I28
tp2072
a(I540
I3
I238
I39
I35
tp2073
a(I540
I4
I238
I40
I35
tp2074
a(I540
I5
I238
I38
I33
tp2075
a(I540
I6
I238
I39
I34
tp2076
a(I540
I7
I238
I39
I34
tp2077
a(I540
I8
I238
I39
I34
tp2078
a(I540
I9
I238
I39
I34
tp2079
a(I540
I10
I238
I39
I34
tp2080
a(I540
I11
I238
I39
I34
tp2081
a(I540
I12
I238
I39
I34
tp2082
a(I540
I13
I238
I39
I34
tp2083
a(I540
I14
I238
I39
I34
tp2084
a(I540
I15
I238
I39
I34
tp2085
a(I540
I16
I194
I47
I57
tp2086
a(I540
I17
I21
I81
I150
tp2087
a(I540
I18
I21
I81
I150
tp2088
a(I540
I19
I65
I73
I127
tp2089
a(I540
I20
I238
I39
I34
tp2090
a(I540
I21
I238
I39
I34
tp2091
a(I540
I22
I238
I39
I34
tp2092
a(I540
I23
I238
I39
I34
tp2093
a(I540
I24
I238
I39
I34
tp2094
a(I540
I25
I238
I39
I34
tp2095
a(I540
I26
I238
I39
I33
tp2096
a(I540
I27
I243
I36
I36
tp2097
a(I34
I13
I255
I0
I0
tp2098
a(I34
I12
I238
I39
I35
tp2099
a(I34
I11
I238
I39
I34
tp2100
a(I34
I10
I238
I39
I34
tp2101
a(I34
I9
I238
I39
I34
tp2102
a(I34
I8
I238
I39
I34
tp2103
a(I34
I7
I238
I39
I34
tp2104
a(I34
I6
I238
I40
I34
tp2105
a(I34
I5
I255
I36
I36
tp2106
a(I162
I3
I237
I40
I32
tp2107
a(I162
I2
I238
I39
I35
tp2108
a(I162
I1
I238
I39
I34
tp2109
a(I162
I0
I238
I39
I34
tp2110
a(I221
I0
I238
I39
I34
tp2111
a(I221
I1
I238
I39
I34
tp2112
a(I221
I2
I238
I39
I34
tp2113
a(I221
I3
I238
I39
I34
tp2114
a(I221
I4
I238
I39
I34
tp2115
a(I221
I5
I238
I39
I34
tp2116
a(I221
I6
I238
I39
I34
tp2117
a(I221
I7
I238
I39
I34
tp2118
a(I221
I8
I238
I39
I34
tp2119
a(I221
I9
I238
I39
I34
tp2120
a(I221
I10
I238
I39
I34
tp2121
a(I221
I11
I238
I39
I34
tp2122
a(I221
I12
I238
I39
I34
tp2123
a(I221
I13
I238
I39
I34
tp2124
a(I221
I14
I238
I39
I34
tp2125
a(I221
I15
I238
I39
I34
tp2126
a(I221
I16
I238
I39
I34
tp2127
a(I221
I17
I238
I39
I34
tp2128
a(I221
I18
I238
I39
I34
tp2129
a(I221
I19
I238
I39
I34
tp2130
a(I221
I20
I238
I39
I34
tp2131
a(I221
I21
I238
I39
I34
tp2132
a(I221
I22
I238
I39
I34
tp2133
a(I221
I23
I238
I39
I34
tp2134
a(I221
I24
I238
I39
I34
tp2135
a(I221
I25
I238
I39
I34
tp2136
a(I221
I26
I238
I39
I34
tp2137
a(I221
I27
I238
I39
I34
tp2138
a(I221
I28
I238
I39
I34
tp2139
a(I221
I29
I238
I39
I34
tp2140
a(I221
I30
I238
I39
I34
tp2141
a(I221
I31
I238
I39
I34
tp2142
a(I418
I31
I238
I39
I34
tp2143
a(I418
I30
I238
I39
I34
tp2144
a(I418
I29
I238
I39
I34
tp2145
a(I418
I28
I238
I39
I34
tp2146
a(I418
I27
I238
I39
I34
tp2147
a(I418
I26
I238
I39
I34
tp2148
a(I418
I25
I238
I39
I34
tp2149
a(I418
I24
I238
I39
I34
tp2150
a(I418
I23
I238
I39
I34
tp2151
a(I418
I22
I238
I39
I34
tp2152
a(I418
I21
I238
I39
I34
tp2153
a(I418
I20
I238
I39
I34
tp2154
a(I418
I19
I238
I39
I34
tp2155
a(I418
I18
I238
I39
I34
tp2156
a(I418
I17
I238
I39
I34
tp2157
a(I418
I16
I238
I39
I34
tp2158
a(I418
I15
I238
I39
I35
tp2159
a(I418
I14
I238
I39
I33
tp2160
a(I418
I13
I238
I39
I33
tp2161
a(I418
I12
I237
I39
I33
tp2162
a(I418
I11
I238
I40
I33
tp2163
a(I418
I10
I239
I40
I35
tp2164
a(I418
I9
I238
I39
I34
tp2165
a(I418
I8
I237
I38
I33
tp2166
a(I418
I7
I239
I40
I35
tp2167
a(I418
I6
I238
I39
I33
tp2168
a(I418
I5
I238
I40
I35
tp2169
a(I418
I4
I237
I40
I33
tp2170
a(I418
I3
I239
I38
I34
tp2171
a(I418
I2
I238
I39
I35
tp2172
a(I418
I1
I239
I39
I34
tp2173
a(I418
I0
I239
I38
I34
tp2174
a(I541
I0
I238
I39
I34
tp2175
a(I541
I1
I238
I39
I34
tp2176
a(I541
I2
I238
I39
I34
tp2177
a(I541
I3
I238
I39
I34
tp2178
a(I541
I4
I238
I39
I34
tp2179
a(I541
I5
I238
I39
I34
tp2180
a(I541
I6
I238
I39
I34
tp2181
a(I541
I7
I238
I39
I34
tp2182
a(I541
I8
I238
I39
I34
tp2183
a(I541
I9
I238
I39
I34
tp2184
a(I541
I10
I238
I39
I34
tp2185
a(I541
I11
I238
I39
I34
tp2186
a(I541
I12
I238
I39
I34
tp2187
a(I541
I13
I238
I39
I34
tp2188
a(I541
I14
I238
I39
I34
tp2189
a(I541
I15
I238
I39
I34
tp2190
a(I541
I16
I194
I47
I57
tp2191
a(I541
I17
I21
I81
I150
tp2192
a(I541
I18
I21
I81
I150
tp2193
a(I541
I19
I55
I74
I131
tp2194
a(I541
I20
I238
I39
I34
tp2195
a(I541
I21
I238
I39
I34
tp2196
a(I541
I22
I238
I39
I34
tp2197
a(I541
I23
I238
I39
I34
tp2198
a(I541
I24
I238
I39
I34
tp2199
a(I541
I25
I239
I38
I33
tp2200
a(I33
I14
I255
I0
I0
tp2201
a(I33
I13
I237
I38
I34
tp2202
a(I33
I12
I238
I39
I34
tp2203
a(I33
I11
I238
I39
I34
tp2204
a(I33
I10
I238
I39
I34
tp2205
a(I33
I9
I238
I39
I34
tp2206
a(I33
I8
I238
I40
I34
tp2207
a(I33
I7
I237
I42
I36
tp2208
a(I161
I2
I255
I64
I64
tp2209
a(I161
I1
I237
I40
I33
tp2210
a(I161
I0
I238
I39
I34
tp2211
a(I222
I0
I238
I39
I34
tp2212
a(I222
I1
I238
I39
I34
tp2213
a(I222
I2
I238
I39
I34
tp2214
a(I222
I3
I238
I39
I34
tp2215
a(I222
I4
I238
I39
I34
tp2216
a(I222
I5
I238
I39
I34
tp2217
a(I222
I6
I238
I39
I34
tp2218
a(I222
I7
I238
I39
I34
tp2219
a(I222
I8
I238
I39
I34
tp2220
a(I222
I9
I238
I39
I34
tp2221
a(I222
I10
I238
I39
I34
tp2222
a(I222
I11
I238
I39
I34
tp2223
a(I222
I12
I238
I39
I34
tp2224
a(I222
I13
I238
I39
I34
tp2225
a(I222
I14
I238
I39
I34
tp2226
a(I222
I15
I238
I39
I34
tp2227
a(I222
I16
I238
I39
I34
tp2228
a(I222
I17
I238
I39
I34
tp2229
a(I222
I18
I238
I39
I34
tp2230
a(I222
I19
I238
I39
I34
tp2231
a(I222
I20
I238
I39
I34
tp2232
a(I222
I21
I238
I39
I34
tp2233
a(I222
I22
I238
I39
I34
tp2234
a(I222
I23
I238
I39
I34
tp2235
a(I222
I24
I238
I39
I34
tp2236
a(I222
I25
I238
I39
I34
tp2237
a(I222
I26
I238
I39
I34
tp2238
a(I222
I27
I238
I39
I34
tp2239
a(I222
I28
I238
I39
I34
tp2240
a(I222
I29
I238
I39
I34
tp2241
a(I222
I30
I238
I39
I34
tp2242
a(I222
I31
I238
I39
I34
tp2243
a(I417
I31
I238
I39
I34
tp2244
a(I417
I30
I238
I39
I34
tp2245
a(I417
I29
I238
I39
I34
tp2246
a(I417
I28
I238
I39
I34
tp2247
a(I417
I27
I238
I39
I34
tp2248
a(I417
I26
I238
I39
I34
tp2249
a(I417
I25
I238
I39
I34
tp2250
a(I417
I24
I238
I39
I34
tp2251
a(I417
I23
I238
I39
I34
tp2252
a(I417
I22
I238
I39
I34
tp2253
a(I417
I21
I238
I39
I34
tp2254
a(I417
I20
I238
I39
I34
tp2255
a(I417
I19
I238
I39
I34
tp2256
a(I417
I18
I238
I39
I34
tp2257
a(I417
I17
I238
I39
I34
tp2258
a(I417
I16
I238
I39
I34
tp2259
a(I417
I15
I238
I39
I34
tp2260
a(I417
I14
I238
I39
I34
tp2261
a(I417
I13
I238
I39
I34
tp2262
a(I417
I12
I238
I39
I34
tp2263
a(I417
I11
I238
I39
I34
tp2264
a(I417
I10
I238
I39
I34
tp2265
a(I417
I9
I238
I39
I34
tp2266
a(I417
I8
I238
I39
I34
tp2267
a(I417
I7
I238
I39
I34
tp2268
a(I417
I6
I238
I39
I34
tp2269
a(I417
I5
I238
I39
I34
tp2270
a(I417
I4
I238
I39
I34
tp2271
a(I417
I3
I238
I39
I34
tp2272
a(I417
I2
I238
I39
I34
tp2273
a(I417
I1
I238
I39
I34
tp2274
a(I417
I0
I238
I39
I34
tp2275
a(I542
I0
I238
I39
I34
tp2276
a(I542
I1
I238
I39
I34
tp2277
a(I542
I2
I238
I39
I34
tp2278
a(I542
I3
I238
I39
I34
tp2279
a(I542
I4
I238
I39
I34
tp2280
a(I542
I5
I238
I39
I34
tp2281
a(I542
I6
I238
I39
I34
tp2282
a(I542
I7
I238
I39
I34
tp2283
a(I542
I8
I238
I39
I34
tp2284
a(I542
I9
I238
I39
I34
tp2285
a(I542
I10
I238
I39
I34
tp2286
a(I542
I11
I238
I39
I34
tp2287
a(I542
I12
I238
I39
I34
tp2288
a(I542
I13
I238
I39
I34
tp2289
a(I542
I14
I238
I39
I34
tp2290
a(I542
I15
I238
I39
I34
tp2291
a(I542
I16
I185
I50
I62
tp2292
a(I542
I17
I21
I81
I150
tp2293
a(I542
I18
I21
I81
I150
tp2294
a(I542
I19
I50
I75
I135
tp2295
a(I542
I20
I238
I39
I34
tp2296
a(I542
I21
I238
I39
I34
tp2297
a(I542
I22
I238
I39
I34
tp2298
a(I542
I23
I239
I40
I34
tp2299
a(I542
I24
I238
I43
I34
tp2300
a(I32
I15
I255
I0
I0
tp2301
a(I32
I14
I238
I39
I34
tp2302
a(I32
I13
I238
I39
I34
tp2303
a(I32
I12
I238
I39
I34
tp2304
a(I32
I11
I238
I39
I34
tp2305
a(I32
I10
I238
I39
I34
tp2306
a(I32
I9
I237
I40
I33
tp2307
a(I32
I8
I255
I0
I0
tp2308
a(I160
I0
I237
I36
I36
tp2309
a(I223
I0
I238
I39
I33
tp2310
a(I223
I1
I238
I39
I34
tp2311
a(I223
I2
I238
I39
I34
tp2312
a(I223
I3
I238
I39
I34
tp2313
a(I223
I4
I238
I39
I34
tp2314
a(I223
I5
I238
I39
I34
tp2315
a(I223
I6
I238
I39
I34
tp2316
a(I223
I7
I238
I39
I34
tp2317
a(I223
I8
I238
I39
I34
tp2318
a(I223
I9
I238
I39
I34
tp2319
a(I223
I10
I238
I39
I34
tp2320
a(I223
I11
I238
I39
I34
tp2321
a(I223
I12
I238
I39
I34
tp2322
a(I223
I13
I238
I39
I34
tp2323
a(I223
I14
I238
I39
I34
tp2324
a(I223
I15
I238
I39
I34
tp2325
a(I223
I16
I238
I39
I34
tp2326
a(I223
I17
I238
I39
I34
tp2327
a(I223
I18
I238
I39
I34
tp2328
a(I223
I19
I238
I39
I34
tp2329
a(I223
I20
I238
I39
I34
tp2330
a(I223
I21
I238
I39
I34
tp2331
a(I223
I22
I238
I39
I34
tp2332
a(I223
I23
I238
I39
I34
tp2333
a(I223
I24
I238
I39
I34
tp2334
a(I223
I25
I238
I39
I34
tp2335
a(I223
I26
I238
I39
I34
tp2336
a(I223
I27
I238
I39
I34
tp2337
a(I223
I28
I238
I39
I34
tp2338
a(I223
I29
I238
I39
I34
tp2339
a(I223
I30
I238
I39
I34
tp2340
a(I223
I31
I238
I39
I34
tp2341
a(I416
I31
I238
I39
I34
tp2342
a(I416
I30
I238
I39
I34
tp2343
a(I416
I29
I238
I39
I34
tp2344
a(I416
I28
I238
I39
I34
tp2345
a(I416
I27
I238
I39
I34
tp2346
a(I416
I26
I238
I39
I34
tp2347
a(I416
I25
I238
I39
I34
tp2348
a(I416
I24
I238
I39
I34
tp2349
a(I416
I23
I238
I39
I34
tp2350
a(I416
I22
I238
I39
I34
tp2351
a(I416
I21
I238
I39
I34
tp2352
a(I416
I20
I238
I39
I34
tp2353
a(I416
I19
I238
I39
I34
tp2354
a(I416
I18
I238
I39
I34
tp2355
a(I416
I17
I238
I39
I34
tp2356
a(I416
I16
I238
I39
I34
tp2357
a(I416
I15
I238
I39
I34
tp2358
a(I416
I14
I238
I39
I34
tp2359
a(I416
I13
I238
I39
I34
tp2360
a(I416
I12
I238
I39
I34
tp2361
a(I416
I11
I238
I39
I34
tp2362
a(I416
I10
I238
I39
I34
tp2363
a(I416
I9
I238
I39
I34
tp2364
a(I416
I8
I238
I39
I34
tp2365
a(I416
I7
I238
I39
I34
tp2366
a(I416
I6
I238
I39
I34
tp2367
a(I416
I5
I238
I39
I34
tp2368
a(I416
I4
I238
I39
I34
tp2369
a(I416
I3
I238
I39
I34
tp2370
a(I416
I2
I238
I39
I34
tp2371
a(I416
I1
I238
I39
I34
tp2372
a(I416
I0
I238
I39
I34
tp2373
a(I543
I0
I238
I39
I34
tp2374
a(I543
I1
I238
I39
I34
tp2375
a(I543
I2
I238
I39
I34
tp2376
a(I543
I3
I238
I39
I34
tp2377
a(I543
I4
I238
I39
I34
tp2378
a(I543
I5
I238
I39
I34
tp2379
a(I543
I6
I238
I39
I34
tp2380
a(I543
I7
I238
I39
I34
tp2381
a(I543
I8
I238
I39
I34
tp2382
a(I543
I9
I238
I39
I34
tp2383
a(I543
I10
I238
I39
I34
tp2384
a(I543
I11
I238
I39
I34
tp2385
a(I543
I12
I238
I39
I34
tp2386
a(I543
I13
I238
I39
I34
tp2387
a(I543
I14
I238
I39
I34
tp2388
a(I543
I15
I238
I39
I34
tp2389
a(I543
I16
I181
I51
I65
tp2390
a(I543
I17
I21
I81
I150
tp2391
a(I543
I18
I21
I81
I150
tp2392
a(I543
I19
I36
I79
I142
tp2393
a(I543
I20
I238
I39
I34
tp2394
a(I543
I21
I238
I39
I34
tp2395
a(I543
I22
I237
I38
I33
tp2396
a(I543
I23
I255
I0
I0
tp2397
a(I31
I15
I238
I40
I34
tp2398
a(I31
I14
I238
I39
I34
tp2399
a(I31
I13
I238
I39
I34
tp2400
a(I31
I12
I238
I39
I34
tp2401
a(I31
I11
I238
I39
I33
tp2402
a(I31
I10
I236
I37
I31
tp2403
a(I224
I0
I255
I0
I0
tp2404
a(I224
I1
I239
I39
I34
tp2405
a(I224
I2
I238
I39
I34
tp2406
a(I224
I3
I238
I39
I34
tp2407
a(I224
I4
I238
I39
I34
tp2408
a(I224
I5
I238
I39
I34
tp2409
a(I224
I6
I238
I39
I34
tp2410
a(I224
I7
I238
I39
I34
tp2411
a(I224
I8
I238
I39
I34
tp2412
a(I224
I9
I238
I39
I34
tp2413
a(I224
I10
I238
I39
I34
tp2414
a(I224
I11
I238
I39
I34
tp2415
a(I224
I12
I238
I39
I34
tp2416
a(I224
I13
I238
I39
I34
tp2417
a(I224
I14
I238
I39
I34
tp2418
a(I224
I15
I238
I39
I34
tp2419
a(I224
I16
I238
I39
I34
tp2420
a(I224
I17
I238
I39
I34
tp2421
a(I224
I18
I238
I39
I34
tp2422
a(I224
I19
I238
I39
I34
tp2423
a(I224
I20
I238
I39
I34
tp2424
a(I224
I21
I238
I39
I34
tp2425
a(I224
I22
I238
I39
I34
tp2426
a(I224
I23
I238
I39
I34
tp2427
a(I224
I24
I238
I39
I34
tp2428
a(I224
I25
I238
I39
I34
tp2429
a(I224
I26
I238
I39
I34
tp2430
a(I224
I27
I238
I39
I34
tp2431
a(I224
I28
I238
I39
I34
tp2432
a(I224
I29
I238
I39
I34
tp2433
a(I224
I30
I238
I39
I34
tp2434
a(I224
I31
I238
I39
I34
tp2435
a(I415
I31
I238
I39
I34
tp2436
a(I415
I30
I238
I39
I34
tp2437
a(I415
I29
I238
I39
I34
tp2438
a(I415
I28
I238
I39
I34
tp2439
a(I415
I27
I238
I39
I34
tp2440
a(I415
I26
I238
I39
I34
tp2441
a(I415
I25
I238
I39
I34
tp2442
a(I415
I24
I238
I39
I34
tp2443
a(I415
I23
I238
I39
I34
tp2444
a(I415
I22
I238
I39
I34
tp2445
a(I415
I21
I238
I39
I34
tp2446
a(I415
I20
I238
I39
I34
tp2447
a(I415
I19
I238
I39
I34
tp2448
a(I415
I18
I238
I39
I34
tp2449
a(I415
I17
I238
I39
I34
tp2450
a(I415
I16
I238
I39
I34
tp2451
a(I415
I15
I238
I39
I34
tp2452
a(I415
I14
I238
I39
I34
tp2453
a(I415
I13
I238
I39
I34
tp2454
a(I415
I12
I238
I39
I34
tp2455
a(I415
I11
I238
I39
I34
tp2456
a(I415
I10
I238
I39
I34
tp2457
a(I415
I9
I238
I39
I34
tp2458
a(I415
I8
I238
I39
I34
tp2459
a(I415
I7
I238
I39
I34
tp2460
a(I415
I6
I238
I39
I34
tp2461
a(I415
I5
I238
I39
I34
tp2462
a(I415
I4
I238
I39
I34
tp2463
a(I415
I3
I238
I39
I34
tp2464
a(I415
I2
I238
I39
I34
tp2465
a(I415
I1
I238
I39
I34
tp2466
a(I415
I0
I238
I39
I34
tp2467
a(I544
I0
I238
I39
I34
tp2468
a(I544
I1
I238
I39
I34
tp2469
a(I544
I2
I238
I39
I34
tp2470
a(I544
I3
I238
I39
I34
tp2471
a(I544
I4
I238
I39
I34
tp2472
a(I544
I5
I238
I39
I34
tp2473
a(I544
I6
I238
I39
I34
tp2474
a(I544
I7
I238
I39
I34
tp2475
a(I544
I8
I238
I39
I34
tp2476
a(I544
I9
I238
I39
I34
tp2477
a(I544
I10
I238
I39
I34
tp2478
a(I544
I11
I238
I39
I34
tp2479
a(I544
I12
I238
I39
I34
tp2480
a(I544
I13
I238
I39
I34
tp2481
a(I544
I14
I238
I39
I34
tp2482
a(I544
I15
I238
I39
I34
tp2483
a(I544
I16
I174
I52
I68
tp2484
a(I544
I17
I21
I81
I150
tp2485
a(I544
I18
I21
I81
I150
tp2486
a(I544
I19
I29
I80
I145
tp2487
a(I544
I20
I238
I38
I34
tp2488
a(I544
I21
I237
I36
I36
tp2489
a(I30
I16
I239
I39
I34
tp2490
a(I30
I15
I238
I39
I34
tp2491
a(I30
I14
I238
I39
I34
tp2492
a(I30
I13
I238
I39
I34
tp2493
a(I30
I12
I239
I39
I35
tp2494
a(I30
I11
I255
I0
I0
tp2495
a(I225
I2
I241
I43
I35
tp2496
a(I225
I3
I238
I39
I34
tp2497
a(I225
I4
I238
I39
I34
tp2498
a(I225
I5
I238
I39
I34
tp2499
a(I225
I6
I238
I39
I34
tp2500
a(I225
I7
I238
I39
I34
tp2501
a(I225
I8
I238
I39
I34
tp2502
a(I225
I9
I238
I39
I34
tp2503
a(I225
I10
I238
I39
I34
tp2504
a(I225
I11
I238
I39
I34
tp2505
a(I225
I12
I238
I39
I34
tp2506
a(I225
I13
I238
I39
I34
tp2507
a(I225
I14
I238
I39
I34
tp2508
a(I225
I15
I238
I39
I34
tp2509
a(I225
I16
I238
I39
I34
tp2510
a(I225
I17
I238
I39
I34
tp2511
a(I225
I18
I238
I39
I34
tp2512
a(I225
I19
I238
I39
I34
tp2513
a(I225
I20
I238
I39
I34
tp2514
a(I225
I21
I238
I39
I34
tp2515
a(I225
I22
I238
I39
I34
tp2516
a(I225
I23
I238
I39
I34
tp2517
a(I225
I24
I238
I39
I34
tp2518
a(I225
I25
I238
I39
I34
tp2519
a(I225
I26
I238
I39
I34
tp2520
a(I225
I27
I238
I39
I34
tp2521
a(I225
I28
I238
I39
I34
tp2522
a(I225
I29
I238
I39
I34
tp2523
a(I225
I30
I238
I39
I34
tp2524
a(I225
I31
I238
I39
I34
tp2525
a(I414
I31
I238
I39
I34
tp2526
a(I414
I30
I238
I39
I34
tp2527
a(I414
I29
I238
I39
I34
tp2528
a(I414
I28
I238
I39
I34
tp2529
a(I414
I27
I238
I39
I34
tp2530
a(I414
I26
I238
I39
I34
tp2531
a(I414
I25
I238
I39
I34
tp2532
a(I414
I24
I238
I39
I34
tp2533
a(I414
I23
I238
I39
I34
tp2534
a(I414
I22
I238
I39
I34
tp2535
a(I414
I21
I238
I39
I34
tp2536
a(I414
I20
I238
I39
I34
tp2537
a(I414
I19
I238
I39
I34
tp2538
a(I414
I18
I238
I39
I34
tp2539
a(I414
I17
I238
I39
I34
tp2540
a(I414
I16
I238
I39
I34
tp2541
a(I414
I15
I238
I39
I34
tp2542
a(I414
I14
I238
I39
I34
tp2543
a(I414
I13
I238
I39
I34
tp2544
a(I414
I12
I238
I39
I34
tp2545
a(I414
I11
I238
I39
I34
tp2546
a(I414
I10
I238
I39
I34
tp2547
a(I414
I9
I238
I39
I34
tp2548
a(I414
I8
I238
I39
I34
tp2549
a(I414
I7
I238
I39
I34
tp2550
a(I414
I6
I238
I39
I34
tp2551
a(I414
I5
I238
I39
I34
tp2552
a(I414
I4
I238
I39
I34
tp2553
a(I414
I3
I238
I39
I34
tp2554
a(I414
I2
I238
I39
I34
tp2555
a(I414
I1
I238
I39
I34
tp2556
a(I414
I0
I238
I39
I34
tp2557
a(I545
I0
I238
I39
I34
tp2558
a(I545
I1
I238
I39
I34
tp2559
a(I545
I2
I238
I39
I34
tp2560
a(I545
I3
I238
I39
I34
tp2561
a(I545
I4
I238
I39
I34
tp2562
a(I545
I5
I238
I39
I34
tp2563
a(I545
I6
I238
I39
I34
tp2564
a(I545
I7
I238
I39
I34
tp2565
a(I545
I8
I238
I39
I34
tp2566
a(I545
I9
I238
I39
I34
tp2567
a(I545
I10
I238
I39
I34
tp2568
a(I545
I11
I238
I39
I34
tp2569
a(I545
I12
I238
I39
I34
tp2570
a(I545
I13
I238
I39
I34
tp2571
a(I545
I14
I238
I39
I34
tp2572
a(I545
I15
I238
I39
I34
tp2573
a(I545
I16
I166
I53
I73
tp2574
a(I545
I17
I21
I81
I150
tp2575
a(I545
I18
I21
I81
I150
tp2576
a(I545
I19
I21
I81
I150
tp2577
a(I29
I17
I239
I40
I35
tp2578
a(I29
I16
I238
I39
I34
tp2579
a(I29
I15
I238
I39
I34
tp2580
a(I29
I14
I238
I39
I34
tp2581
a(I29
I13
I237
I40
I32
tp2582
a(I226
I3
I255
I64
I64
tp2583
a(I226
I4
I238
I39
I34
tp2584
a(I226
I5
I238
I39
I34
tp2585
a(I226
I6
I238
I39
I34
tp2586
a(I226
I7
I238
I39
I34
tp2587
a(I226
I8
I238
I39
I34
tp2588
a(I226
I9
I238
I39
I34
tp2589
a(I226
I10
I238
I39
I34
tp2590
a(I226
I11
I238
I39
I34
tp2591
a(I226
I12
I238
I39
I34
tp2592
a(I226
I13
I238
I39
I34
tp2593
a(I226
I14
I238
I39
I34
tp2594
a(I226
I15
I238
I39
I34
tp2595
a(I226
I16
I238
I39
I34
tp2596
a(I226
I17
I238
I39
I34
tp2597
a(I226
I18
I238
I39
I34
tp2598
a(I226
I19
I238
I39
I34
tp2599
a(I226
I20
I238
I39
I34
tp2600
a(I226
I21
I238
I39
I34
tp2601
a(I226
I22
I238
I39
I34
tp2602
a(I226
I23
I238
I39
I34
tp2603
a(I226
I24
I238
I39
I34
tp2604
a(I226
I25
I238
I39
I34
tp2605
a(I226
I26
I238
I39
I34
tp2606
a(I226
I27
I238
I39
I34
tp2607
a(I226
I28
I238
I39
I34
tp2608
a(I226
I29
I238
I39
I34
tp2609
a(I226
I30
I238
I39
I34
tp2610
a(I226
I31
I238
I39
I34
tp2611
a(I413
I31
I238
I39
I34
tp2612
a(I413
I30
I238
I39
I34
tp2613
a(I413
I29
I238
I39
I34
tp2614
a(I413
I28
I238
I39
I34
tp2615
a(I413
I27
I238
I39
I34
tp2616
a(I413
I26
I238
I39
I34
tp2617
a(I413
I25
I238
I39
I34
tp2618
a(I413
I24
I238
I39
I34
tp2619
a(I413
I23
I238
I39
I34
tp2620
a(I413
I22
I238
I39
I34
tp2621
a(I413
I21
I238
I39
I34
tp2622
a(I413
I20
I238
I39
I34
tp2623
a(I413
I19
I238
I39
I34
tp2624
a(I413
I18
I238
I39
I34
tp2625
a(I413
I17
I238
I39
I34
tp2626
a(I413
I16
I238
I39
I34
tp2627
a(I413
I15
I238
I39
I34
tp2628
a(I413
I14
I238
I39
I34
tp2629
a(I413
I13
I238
I39
I34
tp2630
a(I413
I12
I238
I39
I34
tp2631
a(I413
I11
I238
I39
I34
tp2632
a(I413
I10
I238
I39
I34
tp2633
a(I413
I9
I238
I39
I34
tp2634
a(I413
I8
I238
I39
I34
tp2635
a(I413
I7
I238
I39
I34
tp2636
a(I413
I6
I238
I39
I34
tp2637
a(I413
I5
I238
I39
I34
tp2638
a(I413
I4
I238
I39
I34
tp2639
a(I413
I3
I238
I39
I34
tp2640
a(I413
I2
I238
I39
I34
tp2641
a(I413
I1
I238
I39
I34
tp2642
a(I413
I0
I238
I39
I34
tp2643
a(I546
I0
I238
I39
I34
tp2644
a(I546
I1
I238
I39
I34
tp2645
a(I546
I2
I238
I39
I34
tp2646
a(I546
I3
I238
I39
I34
tp2647
a(I546
I4
I238
I39
I34
tp2648
a(I546
I5
I238
I39
I34
tp2649
a(I546
I6
I238
I39
I34
tp2650
a(I546
I7
I238
I39
I34
tp2651
a(I546
I8
I238
I39
I34
tp2652
a(I546
I9
I238
I39
I34
tp2653
a(I546
I10
I238
I39
I34
tp2654
a(I546
I11
I238
I39
I34
tp2655
a(I546
I12
I238
I39
I34
tp2656
a(I546
I13
I238
I39
I34
tp2657
a(I546
I14
I238
I39
I34
tp2658
a(I546
I15
I238
I39
I34
tp2659
a(I546
I16
I156
I55
I78
tp2660
a(I546
I17
I21
I81
I150
tp2661
a(I546
I18
I21
I81
I150
tp2662
a(I546
I19
I21
I81
I150
tp2663
a(I546
I20
I20
I78
I157
tp2664
a(I28
I18
I236
I38
I34
tp2665
a(I28
I17
I238
I39
I34
tp2666
a(I28
I16
I238
I39
I34
tp2667
a(I28
I15
I238
I40
I34
tp2668
a(I28
I14
I239
I40
I32
tp2669
a(I227
I5
I239
I39
I36
tp2670
a(I227
I6
I238
I39
I34
tp2671
a(I227
I7
I238
I39
I34
tp2672
a(I227
I8
I238
I39
I34
tp2673
a(I227
I9
I238
I39
I34
tp2674
a(I227
I10
I238
I39
I34
tp2675
a(I227
I11
I238
I39
I34
tp2676
a(I227
I12
I238
I39
I34
tp2677
a(I227
I13
I238
I39
I34
tp2678
a(I227
I14
I238
I39
I34
tp2679
a(I227
I15
I238
I39
I34
tp2680
a(I227
I16
I238
I39
I34
tp2681
a(I227
I17
I238
I39
I34
tp2682
a(I227
I18
I238
I39
I34
tp2683
a(I227
I19
I238
I39
I34
tp2684
a(I227
I20
I238
I39
I34
tp2685
a(I227
I21
I238
I39
I34
tp2686
a(I227
I22
I238
I39
I34
tp2687
a(I227
I23
I238
I39
I34
tp2688
a(I227
I24
I238
I39
I34
tp2689
a(I227
I25
I238
I39
I34
tp2690
a(I227
I26
I238
I39
I34
tp2691
a(I227
I27
I238
I39
I34
tp2692
a(I227
I28
I238
I39
I34
tp2693
a(I227
I29
I238
I39
I34
tp2694
a(I227
I30
I238
I39
I34
tp2695
a(I227
I31
I238
I39
I34
tp2696
a(I412
I31
I238
I39
I34
tp2697
a(I412
I30
I238
I39
I34
tp2698
a(I412
I29
I238
I39
I34
tp2699
a(I412
I28
I238
I39
I34
tp2700
a(I412
I27
I238
I39
I34
tp2701
a(I412
I26
I238
I39
I34
tp2702
a(I412
I25
I238
I39
I34
tp2703
a(I412
I24
I238
I39
I34
tp2704
a(I412
I23
I238
I39
I34
tp2705
a(I412
I22
I238
I39
I34
tp2706
a(I412
I21
I238
I39
I34
tp2707
a(I412
I20
I238
I39
I34
tp2708
a(I412
I19
I238
I39
I34
tp2709
a(I412
I18
I238
I39
I34
tp2710
a(I412
I17
I238
I39
I34
tp2711
a(I412
I16
I238
I39
I34
tp2712
a(I412
I15
I238
I39
I34
tp2713
a(I412
I14
I238
I39
I34
tp2714
a(I412
I13
I238
I39
I34
tp2715
a(I412
I12
I238
I39
I34
tp2716
a(I412
I11
I238
I39
I34
tp2717
a(I412
I10
I238
I39
I34
tp2718
a(I412
I9
I238
I39
I34
tp2719
a(I412
I8
I238
I39
I34
tp2720
a(I412
I7
I238
I39
I34
tp2721
a(I412
I6
I238
I39
I34
tp2722
a(I412
I5
I238
I39
I34
tp2723
a(I412
I4
I238
I39
I34
tp2724
a(I412
I3
I238
I39
I34
tp2725
a(I412
I2
I238
I39
I34
tp2726
a(I412
I1
I238
I39
I34
tp2727
a(I412
I0
I238
I39
I34
tp2728
a(I547
I0
I238
I39
I34
tp2729
a(I547
I1
I238
I39
I34
tp2730
a(I547
I2
I238
I39
I34
tp2731
a(I547
I3
I238
I39
I34
tp2732
a(I547
I4
I238
I39
I34
tp2733
a(I547
I5
I238
I39
I34
tp2734
a(I547
I6
I238
I39
I34
tp2735
a(I547
I7
I238
I39
I34
tp2736
a(I547
I8
I238
I39
I34
tp2737
a(I547
I9
I238
I39
I34
tp2738
a(I547
I10
I238
I39
I34
tp2739
a(I547
I11
I238
I39
I34
tp2740
a(I547
I12
I238
I39
I34
tp2741
a(I547
I13
I238
I39
I34
tp2742
a(I547
I14
I238
I39
I34
tp2743
a(I547
I15
I239
I38
I34
tp2744
a(I547
I16
I61
I73
I128
tp2745
a(I547
I17
I21
I81
I150
tp2746
a(I547
I18
I21
I81
I150
tp2747
a(I547
I19
I21
I81
I150
tp2748
a(I547
I20
I15
I75
I150
tp2749
a(I27
I19
I240
I39
I34
tp2750
a(I27
I18
I238
I39
I34
tp2751
a(I27
I17
I238
I39
I34
tp2752
a(I27
I16
I238
I40
I34
tp2753
a(I27
I15
I255
I36
I36
tp2754
a(I228
I6
I240
I39
I31
tp2755
a(I228
I7
I239
I39
I34
tp2756
a(I228
I8
I238
I39
I34
tp2757
a(I228
I9
I238
I39
I34
tp2758
a(I228
I10
I238
I39
I34
tp2759
a(I228
I11
I238
I39
I34
tp2760
a(I228
I12
I238
I39
I34
tp2761
a(I228
I13
I238
I39
I34
tp2762
a(I228
I14
I238
I39
I34
tp2763
a(I228
I15
I238
I39
I34
tp2764
a(I228
I16
I238
I39
I34
tp2765
a(I228
I17
I238
I39
I34
tp2766
a(I228
I18
I238
I39
I34
tp2767
a(I228
I19
I238
I39
I34
tp2768
a(I228
I20
I238
I39
I34
tp2769
a(I228
I21
I238
I39
I34
tp2770
a(I228
I22
I238
I39
I34
tp2771
a(I228
I23
I238
I39
I34
tp2772
a(I228
I24
I238
I39
I34
tp2773
a(I228
I25
I238
I39
I34
tp2774
a(I228
I26
I238
I39
I34
tp2775
a(I228
I27
I238
I39
I34
tp2776
a(I228
I28
I238
I39
I34
tp2777
a(I228
I29
I238
I39
I34
tp2778
a(I228
I30
I238
I39
I34
tp2779
a(I228
I31
I238
I39
I34
tp2780
a(I411
I31
I238
I39
I34
tp2781
a(I411
I30
I238
I39
I34
tp2782
a(I411
I29
I238
I39
I34
tp2783
a(I411
I28
I238
I39
I34
tp2784
a(I411
I27
I238
I39
I34
tp2785
a(I411
I26
I238
I39
I34
tp2786
a(I411
I25
I238
I39
I34
tp2787
a(I411
I24
I238
I39
I34
tp2788
a(I411
I23
I238
I39
I34
tp2789
a(I411
I22
I238
I39
I34
tp2790
a(I411
I21
I238
I39
I34
tp2791
a(I411
I20
I238
I39
I34
tp2792
a(I411
I19
I238
I39
I34
tp2793
a(I411
I18
I238
I39
I34
tp2794
a(I411
I17
I238
I39
I34
tp2795
a(I411
I16
I238
I39
I34
tp2796
a(I411
I15
I238
I39
I34
tp2797
a(I411
I14
I238
I39
I34
tp2798
a(I411
I13
I238
I39
I34
tp2799
a(I411
I12
I238
I39
I34
tp2800
a(I411
I11
I238
I39
I34
tp2801
a(I411
I10
I238
I39
I34
tp2802
a(I411
I9
I238
I39
I34
tp2803
a(I411
I8
I238
I39
I34
tp2804
a(I411
I7
I238
I39
I34
tp2805
a(I411
I6
I238
I39
I34
tp2806
a(I411
I5
I238
I39
I34
tp2807
a(I411
I4
I238
I39
I34
tp2808
a(I411
I3
I238
I39
I34
tp2809
a(I411
I2
I238
I39
I34
tp2810
a(I411
I1
I238
I39
I34
tp2811
a(I411
I0
I238
I39
I34
tp2812
a(I548
I0
I238
I39
I34
tp2813
a(I548
I1
I238
I39
I34
tp2814
a(I548
I2
I238
I39
I34
tp2815
a(I548
I3
I238
I39
I34
tp2816
a(I548
I4
I238
I39
I34
tp2817
a(I548
I5
I238
I39
I34
tp2818
a(I548
I6
I238
I39
I34
tp2819
a(I548
I7
I238
I39
I34
tp2820
a(I548
I8
I238
I39
I34
tp2821
a(I548
I9
I238
I39
I34
tp2822
a(I548
I10
I238
I39
I34
tp2823
a(I548
I11
I238
I39
I34
tp2824
a(I548
I12
I238
I39
I34
tp2825
a(I548
I13
I238
I39
I34
tp2826
a(I548
I14
I239
I39
I36
tp2827
a(I548
I16
I20
I82
I151
tp2828
a(I548
I17
I21
I81
I150
tp2829
a(I548
I18
I21
I81
I150
tp2830
a(I548
I19
I21
I81
I150
tp2831
a(I548
I20
I25
I82
I148
tp2832
a(I26
I20
I240
I39
I31
tp2833
a(I26
I19
I237
I39
I34
tp2834
a(I26
I18
I238
I39
I34
tp2835
a(I26
I17
I238
I39
I34
tp2836
a(I229
I7
I255
I43
I43
tp2837
a(I229
I8
I237
I39
I33
tp2838
a(I229
I9
I238
I39
I34
tp2839
a(I229
I10
I238
I39
I34
tp2840
a(I229
I11
I238
I39
I34
tp2841
a(I229
I12
I238
I39
I34
tp2842
a(I229
I13
I238
I39
I34
tp2843
a(I229
I14
I238
I39
I34
tp2844
a(I229
I15
I238
I39
I34
tp2845
a(I229
I16
I238
I39
I34
tp2846
a(I229
I17
I238
I39
I34
tp2847
a(I229
I18
I238
I39
I34
tp2848
a(I229
I19
I238
I39
I34
tp2849
a(I229
I20
I238
I39
I34
tp2850
a(I229
I21
I238
I39
I34
tp2851
a(I229
I22
I238
I39
I34
tp2852
a(I229
I23
I238
I39
I34
tp2853
a(I229
I24
I238
I39
I34
tp2854
a(I229
I25
I238
I39
I34
tp2855
a(I229
I26
I238
I39
I34
tp2856
a(I229
I27
I238
I39
I34
tp2857
a(I229
I28
I238
I39
I34
tp2858
a(I229
I29
I238
I39
I34
tp2859
a(I229
I30
I238
I39
I34
tp2860
a(I229
I31
I238
I39
I34
tp2861
a(I410
I31
I238
I39
I34
tp2862
a(I410
I30
I238
I39
I34
tp2863
a(I410
I29
I238
I39
I34
tp2864
a(I410
I28
I238
I39
I34
tp2865
a(I410
I27
I238
I39
I34
tp2866
a(I410
I26
I238
I39
I34
tp2867
a(I410
I25
I238
I39
I34
tp2868
a(I410
I24
I238
I39
I34
tp2869
a(I410
I23
I238
I39
I34
tp2870
a(I410
I22
I238
I39
I34
tp2871
a(I410
I21
I238
I39
I34
tp2872
a(I410
I20
I238
I39
I34
tp2873
a(I410
I19
I238
I39
I34
tp2874
a(I410
I18
I238
I39
I34
tp2875
a(I410
I17
I238
I39
I34
tp2876
a(I410
I16
I238
I39
I34
tp2877
a(I410
I15
I238
I39
I34
tp2878
a(I410
I14
I238
I39
I34
tp2879
a(I410
I13
I238
I39
I34
tp2880
a(I410
I12
I238
I39
I34
tp2881
a(I410
I11
I238
I39
I34
tp2882
a(I410
I10
I238
I39
I34
tp2883
a(I410
I9
I238
I39
I34
tp2884
a(I410
I8
I238
I39
I34
tp2885
a(I410
I7
I238
I39
I34
tp2886
a(I410
I6
I238
I39
I34
tp2887
a(I410
I5
I238
I39
I34
tp2888
a(I410
I4
I238
I39
I34
tp2889
a(I410
I3
I238
I39
I34
tp2890
a(I410
I2
I238
I39
I34
tp2891
a(I410
I1
I238
I39
I34
tp2892
a(I410
I0
I238
I39
I34
tp2893
a(I549
I0
I238
I39
I34
tp2894
a(I549
I1
I238
I39
I34
tp2895
a(I549
I2
I238
I39
I34
tp2896
a(I549
I3
I238
I39
I34
tp2897
a(I549
I4
I238
I39
I34
tp2898
a(I549
I5
I238
I39
I34
tp2899
a(I549
I6
I238
I39
I34
tp2900
a(I549
I7
I238
I39
I34
tp2901
a(I549
I8
I238
I39
I34
tp2902
a(I549
I9
I238
I39
I34
tp2903
a(I549
I10
I238
I39
I34
tp2904
a(I549
I11
I238
I39
I34
tp2905
a(I549
I12
I238
I40
I35
tp2906
a(I549
I13
I255
I64
I64
tp2907
a(I549
I16
I21
I80
I150
tp2908
a(I549
I17
I21
I81
I150
tp2909
a(I549
I18
I21
I81
I150
tp2910
a(I549
I19
I21
I81
I150
tp2911
a(I549
I20
I23
I83
I150
tp2912
a(I25
I21
I235
I39
I39
tp2913
a(I25
I20
I238
I39
I34
tp2914
a(I25
I19
I238
I39
I34
tp2915
a(I25
I18
I239
I40
I34
tp2916
a(I230
I9
I238
I40
I33
tp2917
a(I230
I10
I238
I39
I34
tp2918
a(I230
I11
I238
I39
I34
tp2919
a(I230
I12
I238
I39
I34
tp2920
a(I230
I13
I238
I39
I34
tp2921
a(I230
I14
I238
I39
I34
tp2922
a(I230
I15
I238
I39
I34
tp2923
a(I230
I16
I238
I39
I34
tp2924
a(I230
I17
I238
I39
I34
tp2925
a(I230
I18
I238
I39
I34
tp2926
a(I230
I19
I238
I39
I34
tp2927
a(I230
I20
I238
I39
I34
tp2928
a(I230
I21
I238
I39
I34
tp2929
a(I230
I22
I238
I39
I34
tp2930
a(I230
I23
I238
I39
I34
tp2931
a(I230
I24
I238
I39
I34
tp2932
a(I230
I25
I238
I39
I34
tp2933
a(I230
I26
I238
I39
I34
tp2934
a(I230
I27
I238
I39
I34
tp2935
a(I230
I28
I238
I39
I34
tp2936
a(I230
I29
I238
I39
I34
tp2937
a(I230
I30
I238
I39
I34
tp2938
a(I230
I31
I238
I39
I34
tp2939
a(I409
I31
I238
I39
I34
tp2940
a(I409
I30
I238
I39
I34
tp2941
a(I409
I29
I238
I39
I34
tp2942
a(I409
I28
I238
I39
I34
tp2943
a(I409
I27
I238
I39
I34
tp2944
a(I409
I26
I238
I39
I34
tp2945
a(I409
I25
I238
I39
I34
tp2946
a(I409
I24
I238
I39
I34
tp2947
a(I409
I23
I238
I39
I34
tp2948
a(I409
I22
I238
I39
I34
tp2949
a(I409
I21
I238
I39
I34
tp2950
a(I409
I20
I238
I39
I34
tp2951
a(I409
I19
I238
I39
I34
tp2952
a(I409
I18
I238
I39
I34
tp2953
a(I409
I17
I238
I39
I34
tp2954
a(I409
I16
I238
I39
I34
tp2955
a(I409
I15
I238
I39
I34
tp2956
a(I409
I14
I238
I39
I34
tp2957
a(I409
I13
I238
I39
I34
tp2958
a(I409
I12
I238
I39
I34
tp2959
a(I409
I11
I238
I39
I34
tp2960
a(I409
I10
I238
I39
I34
tp2961
a(I409
I9
I238
I39
I34
tp2962
a(I409
I8
I238
I39
I34
tp2963
a(I409
I7
I238
I39
I34
tp2964
a(I409
I6
I238
I39
I34
tp2965
a(I409
I5
I238
I39
I34
tp2966
a(I409
I4
I238
I39
I34
tp2967
a(I409
I3
I238
I39
I34
tp2968
a(I409
I2
I238
I39
I34
tp2969
a(I409
I1
I238
I39
I34
tp2970
a(I409
I0
I238
I39
I34
tp2971
a(I550
I0
I238
I39
I34
tp2972
a(I550
I1
I238
I39
I34
tp2973
a(I550
I2
I238
I39
I34
tp2974
a(I550
I3
I238
I39
I34
tp2975
a(I550
I4
I238
I39
I34
tp2976
a(I550
I5
I238
I39
I34
tp2977
a(I550
I6
I238
I39
I34
tp2978
a(I550
I7
I238
I39
I34
tp2979
a(I550
I8
I238
I39
I34
tp2980
a(I550
I9
I238
I39
I34
tp2981
a(I550
I10
I239
I39
I35
tp2982
a(I550
I11
I232
I46
I23
tp2983
a(I550
I16
I20
I82
I151
tp2984
a(I550
I17
I21
I81
I150
tp2985
a(I550
I18
I21
I81
I150
tp2986
a(I550
I19
I21
I81
I150
tp2987
a(I550
I20
I23
I83
I150
tp2988
a(I24
I22
I255
I0
I0
tp2989
a(I24
I21
I238
I39
I33
tp2990
a(I24
I20
I238
I39
I33
tp2991
a(I24
I19
I238
I39
I35
tp2992
a(I231
I10
I238
I43
I34
tp2993
a(I231
I11
I238
I39
I35
tp2994
a(I231
I12
I238
I39
I34
tp2995
a(I231
I13
I238
I39
I34
tp2996
a(I231
I14
I238
I39
I34
tp2997
a(I231
I15
I238
I39
I34
tp2998
a(I231
I16
I238
I39
I34
tp2999
a(I231
I17
I238
I39
I34
tp3000
a(I231
I18
I238
I39
I34
tp3001
a(I231
I19
I238
I39
I34
tp3002
a(I231
I20
I238
I39
I34
tp3003
a(I231
I21
I238
I39
I34
tp3004
a(I231
I22
I238
I39
I34
tp3005
a(I231
I23
I238
I39
I34
tp3006
a(I231
I24
I238
I39
I34
tp3007
a(I231
I25
I238
I39
I34
tp3008
a(I231
I26
I238
I39
I34
tp3009
a(I231
I27
I238
I39
I34
tp3010
a(I231
I28
I238
I39
I34
tp3011
a(I231
I29
I238
I39
I34
tp3012
a(I231
I30
I238
I39
I34
tp3013
a(I231
I31
I238
I39
I34
tp3014
a(I408
I31
I238
I39
I34
tp3015
a(I408
I30
I238
I39
I34
tp3016
a(I408
I29
I238
I39
I34
tp3017
a(I408
I28
I238
I39
I34
tp3018
a(I408
I27
I238
I39
I34
tp3019
a(I408
I26
I238
I39
I34
tp3020
a(I408
I25
I238
I39
I34
tp3021
a(I408
I24
I238
I39
I34
tp3022
a(I408
I23
I238
I39
I34
tp3023
a(I408
I22
I238
I39
I34
tp3024
a(I408
I21
I238
I39
I34
tp3025
a(I408
I20
I238
I39
I34
tp3026
a(I408
I19
I238
I39
I34
tp3027
a(I408
I18
I238
I39
I34
tp3028
a(I408
I17
I238
I39
I34
tp3029
a(I408
I16
I238
I39
I34
tp3030
a(I408
I15
I238
I39
I34
tp3031
a(I408
I14
I238
I39
I34
tp3032
a(I408
I13
I238
I39
I34
tp3033
a(I408
I12
I238
I39
I34
tp3034
a(I408
I11
I238
I39
I34
tp3035
a(I408
I10
I238
I39
I34
tp3036
a(I408
I9
I238
I39
I34
tp3037
a(I408
I8
I238
I39
I34
tp3038
a(I408
I7
I238
I39
I34
tp3039
a(I408
I6
I238
I39
I34
tp3040
a(I408
I5
I238
I39
I34
tp3041
a(I408
I4
I238
I39
I34
tp3042
a(I408
I3
I238
I39
I34
tp3043
a(I408
I2
I238
I39
I34
tp3044
a(I408
I1
I238
I39
I34
tp3045
a(I408
I0
I238
I39
I34
tp3046
a(I551
I0
I238
I39
I34
tp3047
a(I551
I1
I238
I39
I34
tp3048
a(I551
I2
I238
I39
I34
tp3049
a(I551
I3
I238
I39
I34
tp3050
a(I551
I4
I238
I39
I34
tp3051
a(I551
I5
I238
I39
I34
tp3052
a(I551
I6
I238
I39
I34
tp3053
a(I551
I7
I238
I39
I33
tp3054
a(I551
I8
I238
I39
I33
tp3055
a(I551
I9
I239
I32
I32
tp3056
a(I551
I16
I22
I82
I150
tp3057
a(I551
I17
I21
I81
I150
tp3058
a(I551
I18
I21
I81
I150
tp3059
a(I551
I19
I21
I81
I150
tp3060
a(I551
I20
I23
I83
I150
tp3061
a(I23
I22
I237
I40
I34
tp3062
a(I23
I21
I238
I39
I34
tp3063
a(I23
I20
I235
I39
I33
tp3064
a(I232
I11
I255
I0
I0
tp3065
a(I232
I12
I238
I40
I33
tp3066
a(I232
I13
I238
I39
I34
tp3067
a(I232
I14
I238
I39
I34
tp3068
a(I232
I15
I238
I39
I34
tp3069
a(I232
I16
I238
I39
I34
tp3070
a(I232
I17
I238
I39
I34
tp3071
a(I232
I18
I238
I39
I34
tp3072
a(I232
I19
I238
I39
I34
tp3073
a(I232
I20
I238
I39
I34
tp3074
a(I232
I21
I238
I39
I34
tp3075
a(I232
I22
I238
I39
I34
tp3076
a(I232
I23
I238
I39
I34
tp3077
a(I232
I24
I238
I39
I34
tp3078
a(I232
I25
I238
I39
I34
tp3079
a(I232
I26
I238
I39
I34
tp3080
a(I232
I27
I238
I39
I34
tp3081
a(I232
I28
I238
I39
I34
tp3082
a(I232
I29
I238
I39
I34
tp3083
a(I232
I30
I238
I39
I34
tp3084
a(I232
I31
I238
I39
I34
tp3085
a(I407
I31
I238
I39
I34
tp3086
a(I407
I30
I238
I39
I34
tp3087
a(I407
I29
I238
I39
I34
tp3088
a(I407
I28
I238
I39
I34
tp3089
a(I407
I27
I238
I39
I34
tp3090
a(I407
I26
I238
I39
I34
tp3091
a(I407
I25
I238
I39
I34
tp3092
a(I407
I24
I238
I39
I34
tp3093
a(I407
I23
I238
I39
I34
tp3094
a(I407
I22
I238
I39
I34
tp3095
a(I407
I21
I238
I39
I34
tp3096
a(I407
I20
I238
I39
I34
tp3097
a(I407
I19
I238
I39
I34
tp3098
a(I407
I18
I238
I39
I34
tp3099
a(I407
I17
I238
I39
I34
tp3100
a(I407
I16
I238
I39
I34
tp3101
a(I407
I15
I238
I39
I34
tp3102
a(I407
I14
I238
I39
I34
tp3103
a(I407
I13
I238
I39
I34
tp3104
a(I407
I12
I238
I39
I34
tp3105
a(I407
I11
I238
I39
I34
tp3106
a(I407
I10
I238
I39
I34
tp3107
a(I407
I9
I238
I39
I34
tp3108
a(I407
I8
I238
I39
I34
tp3109
a(I407
I7
I238
I39
I34
tp3110
a(I407
I6
I238
I39
I34
tp3111
a(I407
I5
I238
I39
I34
tp3112
a(I407
I4
I238
I39
I34
tp3113
a(I407
I3
I238
I39
I34
tp3114
a(I407
I2
I238
I39
I34
tp3115
a(I407
I1
I238
I39
I34
tp3116
a(I407
I0
I238
I39
I34
tp3117
a(I552
I0
I238
I39
I34
tp3118
a(I552
I1
I238
I39
I34
tp3119
a(I552
I2
I238
I39
I34
tp3120
a(I552
I3
I238
I39
I34
tp3121
a(I552
I4
I238
I39
I34
tp3122
a(I552
I5
I239
I38
I34
tp3123
a(I552
I6
I238
I39
I34
tp3124
a(I552
I7
I235
I39
I39
tp3125
a(I552
I16
I21
I81
I150
tp3126
a(I552
I17
I21
I81
I150
tp3127
a(I552
I18
I21
I81
I150
tp3128
a(I552
I19
I21
I81
I150
tp3129
a(I552
I20
I22
I80
I153
tp3130
a(I22
I23
I238
I40
I34
tp3131
a(I22
I22
I238
I39
I34
tp3132
a(I22
I21
I239
I41
I33
tp3133
a(I233
I13
I237
I36
I36
tp3134
a(I233
I14
I238
I39
I35
tp3135
a(I233
I15
I238
I39
I34
tp3136
a(I233
I16
I238
I39
I34
tp3137
a(I233
I17
I238
I39
I34
tp3138
a(I233
I18
I238
I39
I34
tp3139
a(I233
I19
I238
I39
I34
tp3140
a(I233
I20
I238
I39
I34
tp3141
a(I233
I21
I238
I39
I34
tp3142
a(I233
I22
I238
I39
I34
tp3143
a(I233
I23
I238
I39
I34
tp3144
a(I233
I24
I238
I39
I34
tp3145
a(I233
I25
I238
I39
I34
tp3146
a(I233
I26
I238
I39
I34
tp3147
a(I233
I27
I238
I39
I34
tp3148
a(I233
I28
I238
I39
I34
tp3149
a(I233
I29
I238
I39
I34
tp3150
a(I233
I30
I238
I39
I34
tp3151
a(I233
I31
I238
I39
I34
tp3152
a(I406
I31
I238
I39
I34
tp3153
a(I406
I30
I238
I39
I34
tp3154
a(I406
I29
I238
I39
I34
tp3155
a(I406
I28
I238
I39
I34
tp3156
a(I406
I27
I238
I39
I34
tp3157
a(I406
I26
I238
I39
I34
tp3158
a(I406
I25
I238
I39
I34
tp3159
a(I406
I24
I238
I39
I34
tp3160
a(I406
I23
I238
I39
I34
tp3161
a(I406
I22
I238
I39
I34
tp3162
a(I406
I21
I238
I39
I34
tp3163
a(I406
I20
I238
I39
I34
tp3164
a(I406
I19
I238
I39
I34
tp3165
a(I406
I18
I238
I39
I34
tp3166
a(I406
I17
I238
I39
I34
tp3167
a(I406
I16
I238
I39
I34
tp3168
a(I406
I15
I238
I39
I34
tp3169
a(I406
I14
I238
I39
I34
tp3170
a(I406
I13
I238
I39
I34
tp3171
a(I406
I12
I238
I39
I34
tp3172
a(I406
I11
I238
I39
I34
tp3173
a(I406
I10
I238
I39
I34
tp3174
a(I406
I9
I238
I39
I34
tp3175
a(I406
I8
I238
I39
I34
tp3176
a(I406
I7
I238
I39
I34
tp3177
a(I406
I6
I238
I39
I34
tp3178
a(I406
I5
I238
I39
I34
tp3179
a(I406
I4
I238
I39
I34
tp3180
a(I406
I3
I238
I39
I34
tp3181
a(I406
I2
I238
I39
I34
tp3182
a(I406
I1
I238
I39
I34
tp3183
a(I406
I0
I238
I39
I34
tp3184
a(I553
I0
I238
I39
I34
tp3185
a(I553
I1
I238
I39
I34
tp3186
a(I553
I2
I238
I39
I34
tp3187
a(I553
I3
I238
I39
I34
tp3188
a(I553
I4
I239
I40
I35
tp3189
a(I553
I5
I223
I32
I32
tp3190
a(I553
I16
I21
I81
I149
tp3191
a(I553
I17
I21
I81
I150
tp3192
a(I553
I18
I21
I81
I150
tp3193
a(I553
I19
I21
I81
I150
tp3194
a(I553
I20
I20
I80
I150
tp3195
a(I21
I24
I239
I38
I33
tp3196
a(I21
I23
I238
I39
I34
tp3197
a(I21
I22
I239
I40
I32
tp3198
a(I234
I15
I238
I40
I34
tp3199
a(I234
I16
I238
I38
I34
tp3200
a(I234
I17
I238
I39
I34
tp3201
a(I234
I18
I238
I39
I34
tp3202
a(I234
I19
I238
I39
I34
tp3203
a(I234
I20
I238
I39
I34
tp3204
a(I234
I21
I238
I39
I34
tp3205
a(I234
I22
I238
I39
I34
tp3206
a(I234
I23
I238
I39
I34
tp3207
a(I234
I24
I238
I39
I34
tp3208
a(I234
I25
I238
I39
I34
tp3209
a(I234
I26
I238
I39
I34
tp3210
a(I234
I27
I238
I39
I34
tp3211
a(I234
I28
I238
I39
I34
tp3212
a(I234
I29
I238
I39
I34
tp3213
a(I234
I30
I238
I39
I34
tp3214
a(I234
I31
I238
I39
I34
tp3215
a(I405
I31
I238
I39
I34
tp3216
a(I405
I30
I238
I39
I34
tp3217
a(I405
I29
I238
I39
I34
tp3218
a(I405
I28
I238
I39
I34
tp3219
a(I405
I27
I238
I39
I34
tp3220
a(I405
I26
I238
I39
I34
tp3221
a(I405
I25
I238
I39
I34
tp3222
a(I405
I24
I238
I39
I34
tp3223
a(I405
I23
I238
I39
I34
tp3224
a(I405
I22
I238
I39
I34
tp3225
a(I405
I21
I238
I39
I34
tp3226
a(I405
I20
I238
I39
I34
tp3227
a(I405
I19
I238
I39
I34
tp3228
a(I405
I18
I238
I39
I34
tp3229
a(I405
I17
I238
I39
I34
tp3230
a(I405
I16
I238
I39
I34
tp3231
a(I405
I15
I238
I39
I34
tp3232
a(I405
I14
I238
I39
I34
tp3233
a(I405
I13
I238
I39
I34
tp3234
a(I405
I12
I238
I39
I34
tp3235
a(I405
I11
I238
I39
I34
tp3236
a(I405
I10
I238
I39
I34
tp3237
a(I405
I9
I238
I39
I34
tp3238
a(I405
I8
I238
I39
I34
tp3239
a(I405
I7
I238
I39
I34
tp3240
a(I405
I6
I238
I39
I34
tp3241
a(I405
I5
I238
I39
I34
tp3242
a(I405
I4
I238
I39
I34
tp3243
a(I405
I3
I238
I39
I34
tp3244
a(I405
I2
I238
I39
I34
tp3245
a(I405
I1
I238
I39
I34
tp3246
a(I405
I0
I238
I39
I34
tp3247
a(I554
I0
I238
I39
I34
tp3248
a(I554
I1
I238
I39
I33
tp3249
a(I554
I2
I239
I39
I35
tp3250
a(I554
I3
I255
I0
I0
tp3251
a(I554
I16
I21
I80
I149
tp3252
a(I554
I17
I21
I81
I150
tp3253
a(I554
I18
I21
I81
I150
tp3254
a(I554
I19
I21
I81
I150
tp3255
a(I554
I20
I20
I80
I150
tp3256
a(I20
I25
I235
I39
I39
tp3257
a(I20
I24
I238
I39
I34
tp3258
a(I20
I23
I237
I36
I36
tp3259
a(I235
I16
I255
I36
I36
tp3260
a(I235
I17
I239
I39
I34
tp3261
a(I235
I18
I238
I39
I35
tp3262
a(I235
I19
I238
I39
I34
tp3263
a(I235
I20
I238
I39
I34
tp3264
a(I235
I21
I238
I39
I34
tp3265
a(I235
I22
I238
I39
I34
tp3266
a(I235
I23
I238
I39
I34
tp3267
a(I235
I24
I238
I39
I34
tp3268
a(I235
I25
I238
I39
I34
tp3269
a(I235
I26
I238
I39
I34
tp3270
a(I235
I27
I238
I39
I34
tp3271
a(I235
I28
I238
I39
I34
tp3272
a(I235
I29
I238
I39
I34
tp3273
a(I235
I30
I238
I39
I34
tp3274
a(I235
I31
I238
I39
I34
tp3275
a(I404
I31
I238
I39
I34
tp3276
a(I404
I30
I238
I39
I34
tp3277
a(I404
I29
I238
I39
I34
tp3278
a(I404
I28
I238
I39
I34
tp3279
a(I404
I27
I238
I39
I34
tp3280
a(I404
I26
I238
I39
I34
tp3281
a(I404
I25
I238
I39
I34
tp3282
a(I404
I24
I238
I39
I34
tp3283
a(I404
I23
I238
I39
I34
tp3284
a(I404
I22
I238
I39
I34
tp3285
a(I404
I21
I238
I39
I34
tp3286
a(I404
I20
I238
I39
I34
tp3287
a(I404
I19
I238
I39
I34
tp3288
a(I404
I18
I238
I39
I34
tp3289
a(I404
I17
I238
I39
I34
tp3290
a(I404
I16
I238
I39
I34
tp3291
a(I404
I15
I238
I39
I34
tp3292
a(I404
I14
I238
I39
I34
tp3293
a(I404
I13
I238
I39
I34
tp3294
a(I404
I12
I238
I39
I34
tp3295
a(I404
I11
I238
I39
I34
tp3296
a(I404
I10
I238
I39
I34
tp3297
a(I404
I9
I238
I39
I34
tp3298
a(I404
I8
I238
I39
I34
tp3299
a(I404
I7
I238
I39
I34
tp3300
a(I404
I6
I238
I39
I34
tp3301
a(I404
I5
I238
I39
I34
tp3302
a(I404
I4
I238
I39
I34
tp3303
a(I404
I3
I238
I39
I34
tp3304
a(I404
I2
I238
I39
I34
tp3305
a(I404
I1
I238
I40
I34
tp3306
a(I404
I0
I238
I39
I35
tp3307
a(I555
I0
I235
I39
I29
tp3308
a(I555
I16
I21
I82
I150
tp3309
a(I555
I17
I21
I81
I150
tp3310
a(I555
I18
I21
I81
I150
tp3311
a(I555
I19
I21
I81
I150
tp3312
a(I555
I20
I20
I80
I150
tp3313
a(I19
I26
I255
I0
I0
tp3314
a(I19
I25
I237
I39
I34
tp3315
a(I19
I24
I237
I35
I35
tp3316
a(I236
I18
I255
I51
I51
tp3317
a(I236
I19
I237
I38
I35
tp3318
a(I236
I20
I238
I38
I35
tp3319
a(I236
I21
I238
I39
I34
tp3320
a(I236
I22
I238
I39
I34
tp3321
a(I236
I23
I238
I39
I34
tp3322
a(I236
I24
I238
I39
I34
tp3323
a(I236
I25
I238
I39
I34
tp3324
a(I236
I26
I238
I39
I34
tp3325
a(I236
I27
I238
I39
I34
tp3326
a(I236
I28
I238
I39
I34
tp3327
a(I236
I29
I238
I39
I34
tp3328
a(I236
I30
I238
I39
I34
tp3329
a(I236
I31
I238
I39
I34
tp3330
a(I403
I31
I238
I39
I34
tp3331
a(I403
I30
I238
I39
I34
tp3332
a(I403
I29
I238
I39
I34
tp3333
a(I403
I28
I238
I39
I34
tp3334
a(I403
I27
I238
I39
I34
tp3335
a(I403
I26
I238
I39
I34
tp3336
a(I403
I25
I238
I39
I34
tp3337
a(I403
I24
I238
I39
I34
tp3338
a(I403
I23
I238
I39
I34
tp3339
a(I403
I22
I238
I39
I34
tp3340
a(I403
I21
I238
I39
I34
tp3341
a(I403
I20
I238
I39
I34
tp3342
a(I403
I19
I238
I39
I34
tp3343
a(I403
I18
I238
I39
I34
tp3344
a(I403
I17
I238
I39
I34
tp3345
a(I403
I16
I238
I39
I34
tp3346
a(I403
I15
I238
I39
I34
tp3347
a(I403
I14
I238
I39
I34
tp3348
a(I403
I13
I238
I39
I34
tp3349
a(I403
I12
I238
I39
I34
tp3350
a(I403
I11
I238
I39
I34
tp3351
a(I403
I10
I238
I39
I34
tp3352
a(I403
I9
I238
I39
I34
tp3353
a(I403
I8
I238
I39
I34
tp3354
a(I403
I7
I238
I39
I34
tp3355
a(I403
I6
I238
I39
I34
tp3356
a(I403
I5
I238
I39
I34
tp3357
a(I403
I4
I238
I39
I34
tp3358
a(I403
I3
I238
I38
I35
tp3359
a(I403
I2
I236
I38
I34
tp3360
a(I556
I16
I22
I81
I150
tp3361
a(I556
I17
I21
I81
I150
tp3362
a(I556
I18
I21
I81
I150
tp3363
a(I556
I19
I21
I81
I150
tp3364
a(I556
I20
I20
I80
I150
tp3365
a(I18
I26
I238
I39
I33
tp3366
a(I18
I25
I238
I40
I34
tp3367
a(I237
I21
I236
I37
I32
tp3368
a(I237
I22
I237
I38
I34
tp3369
a(I237
I23
I238
I39
I34
tp3370
a(I237
I24
I238
I39
I34
tp3371
a(I237
I25
I238
I39
I34
tp3372
a(I237
I26
I238
I39
I34
tp3373
a(I237
I27
I238
I39
I34
tp3374
a(I237
I28
I238
I39
I34
tp3375
a(I237
I29
I238
I39
I34
tp3376
a(I237
I30
I238
I39
I34
tp3377
a(I237
I31
I238
I39
I34
tp3378
a(I402
I31
I238
I39
I34
tp3379
a(I402
I30
I238
I39
I34
tp3380
a(I402
I29
I238
I39
I34
tp3381
a(I402
I28
I238
I39
I34
tp3382
a(I402
I27
I238
I39
I34
tp3383
a(I402
I26
I238
I39
I34
tp3384
a(I402
I25
I238
I39
I34
tp3385
a(I402
I24
I238
I39
I34
tp3386
a(I402
I23
I238
I39
I34
tp3387
a(I402
I22
I238
I39
I34
tp3388
a(I402
I21
I238
I39
I34
tp3389
a(I402
I20
I238
I39
I34
tp3390
a(I402
I19
I238
I39
I34
tp3391
a(I402
I18
I238
I39
I34
tp3392
a(I402
I17
I238
I39
I34
tp3393
a(I402
I16
I238
I39
I34
tp3394
a(I402
I15
I238
I39
I34
tp3395
a(I402
I14
I238
I39
I34
tp3396
a(I402
I13
I238
I39
I34
tp3397
a(I402
I12
I238
I39
I34
tp3398
a(I402
I11
I238
I39
I34
tp3399
a(I402
I10
I238
I39
I34
tp3400
a(I402
I9
I238
I39
I34
tp3401
a(I402
I8
I238
I39
I34
tp3402
a(I402
I7
I238
I39
I34
tp3403
a(I402
I6
I238
I39
I35
tp3404
a(I402
I5
I240
I39
I34
tp3405
a(I402
I4
I255
I0
I0
tp3406
a(I557
I15
I0
I85
I170
tp3407
a(I557
I16
I21
I81
I150
tp3408
a(I557
I17
I21
I81
I150
tp3409
a(I557
I18
I21
I81
I150
tp3410
a(I557
I19
I21
I81
I150
tp3411
a(I557
I20
I19
I80
I151
tp3412
a(I17
I27
I240
I36
I36
tp3413
a(I17
I26
I239
I37
I32
tp3414
a(I238
I23
I255
I64
I64
tp3415
a(I238
I24
I239
I40
I36
tp3416
a(I238
I25
I237
I39
I34
tp3417
a(I238
I26
I238
I39
I34
tp3418
a(I238
I27
I238
I39
I34
tp3419
a(I238
I28
I238
I39
I34
tp3420
a(I238
I29
I238
I39
I34
tp3421
a(I238
I30
I238
I39
I34
tp3422
a(I238
I31
I238
I39
I34
tp3423
a(I401
I31
I238
I39
I34
tp3424
a(I401
I30
I238
I39
I34
tp3425
a(I401
I29
I238
I39
I34
tp3426
a(I401
I28
I238
I39
I34
tp3427
a(I401
I27
I238
I39
I34
tp3428
a(I401
I26
I238
I39
I34
tp3429
a(I401
I25
I238
I39
I34
tp3430
a(I401
I24
I238
I39
I34
tp3431
a(I401
I23
I238
I39
I34
tp3432
a(I401
I22
I238
I39
I34
tp3433
a(I401
I21
I238
I39
I34
tp3434
a(I401
I20
I238
I39
I34
tp3435
a(I401
I19
I238
I39
I34
tp3436
a(I401
I18
I238
I39
I34
tp3437
a(I401
I17
I238
I39
I34
tp3438
a(I401
I16
I238
I39
I34
tp3439
a(I401
I15
I238
I39
I34
tp3440
a(I401
I14
I238
I39
I34
tp3441
a(I401
I13
I238
I39
I34
tp3442
a(I401
I12
I238
I39
I34
tp3443
a(I401
I11
I238
I39
I34
tp3444
a(I401
I10
I238
I40
I35
tp3445
a(I401
I9
I239
I38
I33
tp3446
a(I401
I8
I239
I41
I33
tp3447
a(I558
I15
I19
I85
I151
tp3448
a(I558
I16
I21
I81
I150
tp3449
a(I558
I17
I21
I81
I150
tp3450
a(I558
I18
I21
I81
I150
tp3451
a(I558
I19
I21
I81
I150
tp3452
a(I558
I20
I20
I80
I150
tp3453
a(I16
I28
I255
I36
I36
tp3454
a(I16
I27
I238
I41
I35
tp3455
a(I239
I26
I255
I0
I0
tp3456
a(I239
I27
I240
I38
I38
tp3457
a(I239
I28
I237
I39
I33
tp3458
a(I239
I29
I238
I38
I34
tp3459
a(I239
I30
I238
I39
I34
tp3460
a(I239
I31
I238
I39
I34
tp3461
a(I400
I31
I238
I39
I34
tp3462
a(I400
I30
I238
I39
I34
tp3463
a(I400
I29
I238
I39
I34
tp3464
a(I400
I28
I238
I39
I34
tp3465
a(I400
I27
I238
I39
I34
tp3466
a(I400
I26
I238
I39
I34
tp3467
a(I400
I25
I238
I39
I34
tp3468
a(I400
I24
I238
I39
I34
tp3469
a(I400
I23
I238
I39
I34
tp3470
a(I400
I22
I238
I39
I34
tp3471
a(I400
I21
I238
I39
I34
tp3472
a(I400
I20
I238
I39
I34
tp3473
a(I400
I19
I238
I39
I34
tp3474
a(I400
I18
I238
I39
I34
tp3475
a(I400
I17
I238
I39
I34
tp3476
a(I400
I16
I238
I39
I34
tp3477
a(I400
I15
I238
I39
I35
tp3478
a(I400
I14
I238
I39
I35
tp3479
a(I400
I13
I238
I37
I34
tp3480
a(I400
I12
I235
I41
I31
tp3481
a(I559
I15
I20
I82
I148
tp3482
a(I559
I16
I21
I81
I150
tp3483
a(I559
I17
I21
I81
I150
tp3484
a(I559
I18
I21
I81
I150
tp3485
a(I559
I19
I21
I81
I150
tp3486
a(I559
I20
I20
I80
I150
tp3487
a(I15
I28
I240
I45
I30
tp3488
a(I399
I31
I234
I43
I43
tp3489
a(I399
I30
I241
I41
I34
tp3490
a(I399
I29
I238
I38
I33
tp3491
a(I399
I28
I237
I39
I33
tp3492
a(I399
I27
I238
I38
I33
tp3493
a(I399
I26
I239
I39
I34
tp3494
a(I399
I25
I239
I39
I34
tp3495
a(I399
I24
I239
I39
I34
tp3496
a(I399
I23
I239
I39
I34
tp3497
a(I399
I22
I238
I38
I33
tp3498
a(I399
I21
I237
I39
I33
tp3499
a(I399
I20
I239
I40
I36
tp3500
a(I399
I19
I237
I36
I36
tp3501
a(I399
I18
I242
I38
I38
tp3502
a(I399
I17
I255
I0
I0
tp3503
a(I560
I15
I21
I83
I152
tp3504
a(I560
I16
I21
I81
I150
tp3505
a(I560
I17
I21
I81
I150
tp3506
a(I560
I18
I21
I81
I150
tp3507
a(I560
I19
I21
I81
I150
tp3508
a(I560
I20
I20
I80
I150
tp3509
a(I561
I15
I21
I81
I150
tp3510
a(I561
I16
I21
I81
I150
tp3511
a(I561
I17
I21
I81
I150
tp3512
a(I561
I18
I21
I81
I150
tp3513
a(I561
I19
I21
I81
I150
tp3514
a(I561
I20
I20
I80
I150
tp3515
a(I562
I15
I21
I80
I150
tp3516
a(I562
I16
I21
I81
I150
tp3517
a(I562
I17
I21
I81
I150
tp3518
a(I562
I18
I21
I81
I150
tp3519
a(I562
I19
I21
I81
I150
tp3520
a(I562
I20
I20
I80
I150
tp3521
a(I563
I15
I20
I82
I150
tp3522
a(I563
I16
I21
I81
I150
tp3523
a(I563
I17
I21
I81
I150
tp3524
a(I563
I18
I21
I81
I150
tp3525
a(I563
I19
I21
I81
I150
tp3526
a(I563
I20
I22
I83
I150
tp3527
a(I395
I14
I36
I73
I146
tp3528
a(I564
I15
I21
I81
I150
tp3529
a(I564
I16
I21
I81
I150
tp3530
a(I564
I17
I21
I81
I150
tp3531
a(I564
I18
I21
I81
I150
tp3532
a(I564
I19
I21
I81
I150
tp3533
a(I564
I20
I23
I83
I150
tp3534
a(I394
I14
I18
I79
I149
tp3535
a(I565
I15
I20
I81
I150
tp3536
a(I565
I16
I21
I81
I150
tp3537
a(I565
I17
I21
I81
I150
tp3538
a(I565
I18
I21
I81
I150
tp3539
a(I565
I19
I21
I81
I150
tp3540
a(I565
I20
I23
I83
I150
tp3541
a(I393
I14
I20
I80
I151
tp3542
a(I566
I15
I21
I81
I150
tp3543
a(I566
I16
I21
I81
I150
tp3544
a(I566
I17
I21
I81
I150
tp3545
a(I566
I18
I21
I81
I150
tp3546
a(I566
I19
I21
I81
I150
tp3547
a(I566
I20
I23
I83
I150
tp3548
a(I392
I14
I22
I80
I151
tp3549
a(I567
I14
I15
I75
I150
tp3550
a(I567
I15
I21
I81
I150
tp3551
a(I567
I16
I21
I81
I150
tp3552
a(I567
I17
I21
I81
I150
tp3553
a(I567
I18
I21
I81
I150
tp3554
a(I567
I19
I21
I81
I150
tp3555
a(I567
I20
I26
I77
I153
tp3556
a(I391
I14
I20
I81
I149
tp3557
a(I391
I13
I0
I128
I128
tp3558
a(I568
I14
I20
I82
I148
tp3559
a(I568
I15
I21
I81
I150
tp3560
a(I568
I16
I21
I81
I150
tp3561
a(I568
I17
I21
I81
I150
tp3562
a(I568
I18
I21
I81
I150
tp3563
a(I568
I19
I21
I81
I150
tp3564
a(I568
I20
I15
I75
I150
tp3565
a(I390
I14
I21
I80
I149
tp3566
a(I390
I13
I25
I82
I148
tp3567
a(I569
I14
I21
I82
I149
tp3568
a(I569
I15
I21
I81
I150
tp3569
a(I569
I16
I21
I81
I150
tp3570
a(I569
I17
I21
I81
I150
tp3571
a(I569
I18
I21
I81
I150
tp3572
a(I569
I19
I21
I81
I150
tp3573
a(I569
I20
I0
I85
I170
tp3574
a(I389
I14
I20
I80
I150
tp3575
a(I389
I13
I20
I82
I149
tp3576
a(I570
I14
I20
I82
I151
tp3577
a(I570
I15
I21
I81
I150
tp3578
a(I570
I16
I21
I81
I150
tp3579
a(I570
I17
I21
I81
I150
tp3580
a(I570
I18
I21
I81
I150
tp3581
a(I570
I19
I21
I81
I150
tp3582
a(I388
I14
I20
I81
I149
tp3583
a(I388
I13
I21
I80
I149
tp3584
a(I571
I14
I22
I81
I149
tp3585
a(I571
I15
I21
I81
I150
tp3586
a(I571
I16
I21
I81
I150
tp3587
a(I571
I17
I21
I81
I150
tp3588
a(I571
I18
I21
I81
I150
tp3589
a(I571
I19
I21
I81
I150
tp3590
a(I387
I14
I21
I81
I150
tp3591
a(I387
I13
I21
I81
I149
tp3592
a(I572
I14
I22
I81
I150
tp3593
a(I572
I15
I21
I81
I150
tp3594
a(I572
I16
I21
I81
I150
tp3595
a(I572
I17
I21
I81
I150
tp3596
a(I572
I18
I21
I81
I150
tp3597
a(I572
I19
I21
I81
I150
tp3598
a(I386
I14
I21
I80
I150
tp3599
a(I386
I13
I21
I81
I150
tp3600
a(I573
I14
I21
I81
I150
tp3601
a(I573
I15
I21
I81
I150
tp3602
a(I573
I16
I21
I81
I150
tp3603
a(I573
I17
I21
I81
I150
tp3604
a(I573
I18
I21
I81
I150
tp3605
a(I573
I19
I20
I81
I150
tp3606
a(I385
I14
I21
I82
I148
tp3607
a(I385
I13
I21
I81
I150
tp3608
a(I574
I13
I18
I79
I149
tp3609
a(I574
I14
I21
I81
I150
tp3610
a(I574
I15
I21
I81
I150
tp3611
a(I574
I16
I21
I81
I150
tp3612
a(I574
I17
I21
I81
I150
tp3613
a(I574
I18
I21
I81
I150
tp3614
a(I574
I19
I21
I81
I150
tp3615
a(I384
I14
I20
I80
I150
tp3616
a(I384
I13
I21
I81
I150
tp3617
a(I384
I12
I14
I85
I156
tp3618
a(I575
I13
I20
I81
I151
tp3619
a(I575
I14
I21
I81
I150
tp3620
a(I575
I15
I21
I81
I150
tp3621
a(I575
I16
I21
I81
I150
tp3622
a(I575
I17
I21
I81
I150
tp3623
a(I575
I18
I21
I81
I150
tp3624
a(I575
I19
I21
I81
I150
tp3625
a(I256
I28
I22
I78
I155
tp3626
a(I256
I29
I21
I81
I150
tp3627
a(I256
I30
I20
I82
I150
tp3628
a(I383
I7
I21
I81
I150
tp3629
a(I383
I6
I21
I81
I150
tp3630
a(I383
I5
I21
I81
I150
tp3631
a(I383
I4
I21
I81
I150
tp3632
a(I383
I3
I21
I81
I150
tp3633
a(I383
I2
I21
I81
I150
tp3634
a(I383
I1
I21
I81
I151
tp3635
a(I257
I28
I21
I85
I149
tp3636
a(I257
I29
I21
I81
I150
tp3637
a(I257
I30
I21
I82
I151
tp3638
a(I382
I7
I21
I81
I150
tp3639
a(I382
I6
I21
I81
I150
tp3640
a(I382
I5
I21
I81
I150
tp3641
a(I382
I4
I21
I81
I150
tp3642
a(I382
I3
I21
I81
I150
tp3643
a(I382
I2
I21
I81
I150
tp3644
a(I382
I1
I21
I81
I150
tp3645
a(I258
I7
I0
I128
I128
tp3646
a(I258
I29
I21
I81
I150
tp3647
a(I258
I30
I21
I80
I150
tp3648
a(I381
I8
I17
I85
I153
tp3649
a(I381
I7
I21
I81
I150
tp3650
a(I381
I6
I21
I81
I150
tp3651
a(I381
I5
I21
I81
I150
tp3652
a(I381
I4
I21
I81
I150
tp3653
a(I381
I3
I21
I81
I150
tp3654
a(I381
I2
I21
I81
I150
tp3655
a(I381
I1
I21
I81
I151
tp3656
a(I259
I4
I18
I73
I146
tp3657
a(I259
I5
I21
I82
I150
tp3658
a(I259
I6
I20
I81
I150
tp3659
a(I259
I7
I21
I81
I150
tp3660
a(I259
I8
I22
I81
I150
tp3661
a(I259
I9
I20
I81
I150
tp3662
a(I259
I10
I21
I78
I149
tp3663
a(I259
I29
I21
I81
I150
tp3664
a(I259
I30
I21
I81
I150
tp3665
a(I259
I31
I26
I77
I153
tp3666
a(I380
I8
I22
I83
I151
tp3667
a(I380
I7
I21
I81
I150
tp3668
a(I380
I6
I21
I81
I150
tp3669
a(I380
I5
I21
I81
I150
tp3670
a(I380
I4
I21
I81
I150
tp3671
a(I380
I3
I21
I81
I150
tp3672
a(I380
I2
I21
I81
I150
tp3673
a(I380
I1
I22
I80
I149
tp3674
a(I260
I3
I26
I77
I153
tp3675
a(I260
I4
I22
I81
I150
tp3676
a(I260
I5
I21
I81
I150
tp3677
a(I260
I6
I21
I81
I150
tp3678
a(I260
I7
I21
I81
I150
tp3679
a(I260
I8
I21
I81
I150
tp3680
a(I260
I9
I21
I81
I150
tp3681
a(I260
I10
I21
I81
I150
tp3682
a(I260
I11
I22
I79
I149
tp3683
a(I260
I29
I21
I81
I150
tp3684
a(I260
I30
I21
I81
I150
tp3685
a(I260
I31
I19
I81
I151
tp3686
a(I379
I8
I20
I80
I151
tp3687
a(I379
I7
I21
I81
I150
tp3688
a(I379
I6
I21
I81
I150
tp3689
a(I379
I5
I21
I81
I150
tp3690
a(I379
I4
I21
I81
I150
tp3691
a(I379
I3
I21
I81
I150
tp3692
a(I379
I2
I21
I81
I150
tp3693
a(I379
I1
I20
I82
I151
tp3694
a(I261
I3
I21
I81
I150
tp3695
a(I261
I4
I21
I81
I150
tp3696
a(I261
I5
I21
I81
I150
tp3697
a(I261
I6
I21
I81
I150
tp3698
a(I261
I7
I21
I81
I150
tp3699
a(I261
I8
I21
I81
I150
tp3700
a(I261
I9
I21
I81
I150
tp3701
a(I261
I10
I21
I81
I150
tp3702
a(I261
I11
I21
I81
I150
tp3703
a(I261
I12
I28
I85
I142
tp3704
a(I261
I29
I21
I81
I149
tp3705
a(I261
I30
I21
I81
I150
tp3706
a(I261
I31
I22
I82
I149
tp3707
a(I378
I8
I21
I81
I150
tp3708
a(I378
I7
I21
I81
I150
tp3709
a(I378
I6
I21
I81
I150
tp3710
a(I378
I5
I21
I81
I150
tp3711
a(I378
I4
I21
I81
I150
tp3712
a(I378
I3
I21
I81
I150
tp3713
a(I378
I2
I21
I81
I150
tp3714
a(I378
I1
I21
I80
I149
tp3715
a(I262
I2
I23
I81
I151
tp3716
a(I262
I3
I21
I81
I150
tp3717
a(I262
I4
I21
I81
I150
tp3718
a(I262
I5
I21
I81
I150
tp3719
a(I262
I6
I21
I81
I150
tp3720
a(I262
I7
I21
I81
I150
tp3721
a(I262
I8
I21
I81
I150
tp3722
a(I262
I9
I21
I81
I150
tp3723
a(I262
I10
I21
I81
I150
tp3724
a(I262
I11
I21
I81
I150
tp3725
a(I262
I12
I21
I80
I151
tp3726
a(I262
I29
I21
I81
I150
tp3727
a(I262
I30
I21
I81
I150
tp3728
a(I262
I31
I21
I81
I150
tp3729
a(I377
I9
I0
I128
I128
tp3730
a(I377
I8
I21
I81
I150
tp3731
a(I377
I7
I21
I81
I150
tp3732
a(I377
I6
I21
I81
I150
tp3733
a(I377
I5
I21
I81
I150
tp3734
a(I377
I4
I21
I81
I150
tp3735
a(I377
I3
I21
I81
I150
tp3736
a(I377
I2
I21
I81
I150
tp3737
a(I377
I1
I20
I81
I151
tp3738
a(I263
I2
I21
I79
I150
tp3739
a(I263
I3
I21
I81
I150
tp3740
a(I263
I4
I21
I81
I150
tp3741
a(I263
I5
I21
I81
I150
tp3742
a(I263
I6
I21
I81
I150
tp3743
a(I263
I7
I21
I81
I150
tp3744
a(I263
I8
I21
I81
I150
tp3745
a(I263
I9
I21
I81
I150
tp3746
a(I263
I10
I21
I81
I150
tp3747
a(I263
I11
I21
I81
I150
tp3748
a(I263
I12
I22
I81
I150
tp3749
a(I263
I29
I20
I80
I150
tp3750
a(I263
I30
I21
I81
I150
tp3751
a(I263
I31
I21
I81
I150
tp3752
a(I376
I31
I36
I73
I146
tp3753
a(I376
I9
I20
I80
I150
tp3754
a(I376
I8
I21
I81
I150
tp3755
a(I376
I7
I21
I81
I150
tp3756
a(I376
I6
I21
I81
I150
tp3757
a(I376
I5
I21
I81
I150
tp3758
a(I376
I4
I21
I81
I150
tp3759
a(I376
I3
I21
I81
I150
tp3760
a(I376
I2
I21
I81
I150
tp3761
a(I376
I1
I23
I82
I150
tp3762
a(I264
I2
I21
I83
I151
tp3763
a(I264
I3
I21
I81
I150
tp3764
a(I264
I4
I21
I81
I150
tp3765
a(I264
I5
I21
I81
I150
tp3766
a(I264
I6
I21
I81
I150
tp3767
a(I264
I7
I21
I81
I150
tp3768
a(I264
I8
I21
I81
I150
tp3769
a(I264
I9
I21
I81
I150
tp3770
a(I264
I10
I21
I81
I150
tp3771
a(I264
I11
I21
I81
I150
tp3772
a(I264
I12
I20
I82
I151
tp3773
a(I264
I29
I21
I80
I150
tp3774
a(I264
I30
I21
I81
I150
tp3775
a(I264
I31
I21
I81
I150
tp3776
a(I375
I31
I21
I81
I149
tp3777
a(I375
I9
I21
I81
I151
tp3778
a(I375
I8
I21
I81
I150
tp3779
a(I375
I7
I21
I81
I150
tp3780
a(I375
I6
I21
I81
I150
tp3781
a(I375
I5
I21
I81
I150
tp3782
a(I375
I4
I21
I81
I150
tp3783
a(I375
I3
I21
I81
I150
tp3784
a(I375
I2
I21
I81
I150
tp3785
a(I375
I1
I21
I83
I152
tp3786
a(I265
I2
I0
I85
I170
tp3787
a(I265
I3
I21
I81
I150
tp3788
a(I265
I4
I21
I81
I150
tp3789
a(I265
I5
I21
I81
I150
tp3790
a(I265
I6
I21
I81
I150
tp3791
a(I265
I7
I21
I81
I150
tp3792
a(I265
I8
I21
I81
I150
tp3793
a(I265
I9
I21
I81
I150
tp3794
a(I265
I10
I21
I81
I150
tp3795
a(I265
I11
I21
I81
I150
tp3796
a(I265
I12
I23
I79
I147
tp3797
a(I265
I29
I20
I82
I151
tp3798
a(I265
I30
I21
I81
I150
tp3799
a(I265
I31
I21
I81
I150
tp3800
a(I374
I31
I21
I81
I149
tp3801
a(I374
I9
I21
I81
I150
tp3802
a(I374
I8
I21
I81
I150
tp3803
a(I374
I7
I21
I81
I150
tp3804
a(I374
I6
I21
I81
I150
tp3805
a(I374
I5
I21
I81
I150
tp3806
a(I374
I4
I21
I81
I150
tp3807
a(I374
I3
I21
I81
I150
tp3808
a(I374
I2
I21
I81
I150
tp3809
a(I374
I1
I18
I73
I146
tp3810
a(I266
I3
I22
I81
I149
tp3811
a(I266
I4
I21
I81
I150
tp3812
a(I266
I5
I21
I81
I150
tp3813
a(I266
I6
I21
I81
I150
tp3814
a(I266
I7
I21
I81
I150
tp3815
a(I266
I8
I21
I81
I150
tp3816
a(I266
I9
I21
I81
I150
tp3817
a(I266
I10
I21
I81
I150
tp3818
a(I266
I11
I21
I82
I151
tp3819
a(I266
I29
I20
I82
I150
tp3820
a(I266
I30
I21
I81
I150
tp3821
a(I266
I31
I21
I81
I150
tp3822
a(I373
I31
I21
I81
I150
tp3823
a(I373
I10
I26
I77
I153
tp3824
a(I373
I9
I21
I81
I150
tp3825
a(I373
I8
I21
I81
I150
tp3826
a(I373
I7
I21
I81
I150
tp3827
a(I373
I6
I21
I81
I150
tp3828
a(I373
I5
I21
I81
I150
tp3829
a(I373
I4
I21
I81
I150
tp3830
a(I373
I3
I21
I81
I150
tp3831
a(I373
I2
I21
I81
I150
tp3832
a(I267
I4
I21
I80
I149
tp3833
a(I267
I5
I21
I81
I150
tp3834
a(I267
I6
I21
I81
I150
tp3835
a(I267
I7
I21
I81
I150
tp3836
a(I267
I8
I21
I81
I150
tp3837
a(I267
I9
I21
I81
I150
tp3838
a(I267
I10
I21
I81
I150
tp3839
a(I267
I11
I32
I96
I159
tp3840
a(I267
I29
I20
I81
I151
tp3841
a(I267
I30
I21
I81
I150
tp3842
a(I267
I31
I21
I81
I150
tp3843
a(I372
I31
I21
I81
I150
tp3844
a(I372
I30
I18
I82
I146
tp3845
a(I372
I10
I22
I80
I150
tp3846
a(I372
I9
I21
I81
I150
tp3847
a(I372
I8
I21
I81
I150
tp3848
a(I372
I7
I21
I81
I150
tp3849
a(I372
I6
I21
I81
I150
tp3850
a(I372
I5
I21
I81
I150
tp3851
a(I372
I4
I21
I81
I150
tp3852
a(I372
I3
I21
I81
I150
tp3853
a(I372
I2
I21
I81
I150
tp3854
a(I268
I5
I19
I85
I151
tp3855
a(I268
I6
I21
I80
I151
tp3856
a(I268
I7
I22
I81
I150
tp3857
a(I268
I8
I21
I82
I150
tp3858
a(I268
I9
I21
I80
I149
tp3859
a(I268
I29
I20
I83
I152
tp3860
a(I268
I30
I21
I81
I150
tp3861
a(I268
I31
I21
I81
I150
tp3862
a(I371
I31
I21
I81
I150
tp3863
a(I371
I30
I21
I81
I151
tp3864
a(I371
I10
I20
I81
I150
tp3865
a(I371
I9
I21
I81
I150
tp3866
a(I371
I8
I21
I81
I150
tp3867
a(I371
I7
I21
I81
I150
tp3868
a(I371
I6
I21
I81
I150
tp3869
a(I371
I5
I21
I81
I150
tp3870
a(I371
I4
I21
I81
I150
tp3871
a(I371
I3
I21
I81
I150
tp3872
a(I371
I2
I21
I81
I150
tp3873
a(I269
I29
I19
I85
I151
tp3874
a(I269
I30
I21
I81
I150
tp3875
a(I269
I31
I21
I81
I150
tp3876
a(I370
I31
I21
I81
I150
tp3877
a(I370
I30
I21
I81
I150
tp3878
a(I370
I11
I36
I73
I146
tp3879
a(I370
I10
I21
I81
I150
tp3880
a(I370
I9
I21
I81
I150
tp3881
a(I370
I8
I21
I81
I150
tp3882
a(I370
I7
I21
I81
I150
tp3883
a(I370
I6
I21
I81
I150
tp3884
a(I370
I5
I21
I81
I150
tp3885
a(I370
I4
I21
I81
I150
tp3886
a(I370
I3
I21
I81
I150
tp3887
a(I370
I2
I21
I81
I150
tp3888
a(I270
I29
I0
I102
I153
tp3889
a(I270
I30
I21
I81
I150
tp3890
a(I270
I31
I21
I81
I150
tp3891
a(I369
I31
I21
I81
I150
tp3892
a(I369
I30
I21
I81
I150
tp3893
a(I369
I29
I22
I78
I155
tp3894
a(I369
I11
I20
I82
I150
tp3895
a(I369
I10
I21
I81
I150
tp3896
a(I369
I9
I21
I81
I150
tp3897
a(I369
I8
I21
I81
I150
tp3898
a(I369
I7
I21
I81
I150
tp3899
a(I369
I6
I21
I81
I150
tp3900
a(I369
I5
I21
I81
I150
tp3901
a(I369
I4
I21
I81
I150
tp3902
a(I369
I3
I21
I81
I150
tp3903
a(I369
I2
I22
I82
I150
tp3904
a(I271
I30
I21
I81
I149
tp3905
a(I271
I31
I21
I81
I150
tp3906
a(I368
I31
I21
I81
I150
tp3907
a(I368
I30
I21
I81
I150
tp3908
a(I368
I29
I22
I82
I149
tp3909
a(I368
I11
I21
I81
I151
tp3910
a(I368
I10
I21
I81
I150
tp3911
a(I368
I9
I21
I81
I150
tp3912
a(I368
I8
I21
I81
I150
tp3913
a(I368
I7
I21
I81
I150
tp3914
a(I368
I6
I21
I81
I150
tp3915
a(I368
I5
I21
I81
I150
tp3916
a(I368
I4
I21
I81
I150
tp3917
a(I368
I3
I21
I81
I150
tp3918
a(I368
I2
I20
I80
I151
tp3919
a(I272
I30
I21
I81
I150
tp3920
a(I272
I31
I21
I81
I150
tp3921
a(I367
I31
I21
I81
I150
tp3922
a(I367
I30
I21
I81
I150
tp3923
a(I367
I29
I21
I80
I150
tp3924
a(I367
I12
I21
I85
I149
tp3925
a(I367
I11
I21
I81
I150
tp3926
a(I367
I10
I21
I81
I150
tp3927
a(I367
I9
I21
I81
I150
tp3928
a(I367
I8
I21
I81
I150
tp3929
a(I367
I7
I21
I81
I150
tp3930
a(I367
I6
I21
I81
I150
tp3931
a(I367
I5
I21
I81
I150
tp3932
a(I367
I4
I21
I81
I150
tp3933
a(I367
I3
I21
I81
I150
tp3934
a(I367
I2
I21
I80
I149
tp3935
a(I273
I30
I21
I82
I150
tp3936
a(I273
I31
I21
I81
I150
tp3937
a(I366
I31
I21
I81
I150
tp3938
a(I366
I30
I21
I81
I150
tp3939
a(I366
I29
I21
I81
I150
tp3940
a(I366
I28
I19
I80
I151
tp3941
a(I366
I12
I21
I82
I150
tp3942
a(I366
I11
I21
I81
I150
tp3943
a(I366
I10
I21
I81
I150
tp3944
a(I366
I9
I21
I81
I150
tp3945
a(I366
I8
I21
I81
I150
tp3946
a(I366
I7
I21
I81
I150
tp3947
a(I366
I6
I21
I81
I150
tp3948
a(I366
I5
I21
I81
I150
tp3949
a(I366
I4
I21
I81
I150
tp3950
a(I366
I3
I21
I81
I150
tp3951
a(I366
I2
I21
I83
I152
tp3952
a(I274
I30
I21
I80
I150
tp3953
a(I274
I31
I21
I81
I150
tp3954
a(I365
I31
I21
I81
I150
tp3955
a(I365
I30
I21
I81
I150
tp3956
a(I365
I29
I21
I81
I150
tp3957
a(I365
I28
I21
I81
I149
tp3958
a(I365
I13
I0
I85
I170
tp3959
a(I365
I12
I21
I81
I150
tp3960
a(I365
I11
I21
I81
I150
tp3961
a(I365
I10
I21
I81
I150
tp3962
a(I365
I9
I21
I81
I150
tp3963
a(I365
I8
I21
I81
I150
tp3964
a(I365
I7
I21
I81
I150
tp3965
a(I365
I6
I21
I81
I150
tp3966
a(I365
I5
I21
I81
I150
tp3967
a(I365
I4
I21
I81
I150
tp3968
a(I365
I3
I21
I81
I150
tp3969
a(I365
I2
I23
I81
I151
tp3970
a(I275
I30
I22
I81
I149
tp3971
a(I275
I31
I21
I81
I150
tp3972
a(I364
I31
I21
I81
I150
tp3973
a(I364
I30
I21
I81
I150
tp3974
a(I364
I29
I21
I81
I150
tp3975
a(I364
I28
I21
I81
I150
tp3976
a(I364
I27
I20
I78
I150
tp3977
a(I364
I13
I20
I80
I150
tp3978
a(I364
I12
I21
I81
I150
tp3979
a(I364
I11
I21
I81
I150
tp3980
a(I364
I10
I21
I81
I150
tp3981
a(I364
I9
I21
I81
I150
tp3982
a(I364
I8
I21
I81
I150
tp3983
a(I364
I7
I21
I81
I150
tp3984
a(I364
I6
I21
I81
I150
tp3985
a(I364
I5
I21
I81
I150
tp3986
a(I364
I4
I21
I81
I150
tp3987
a(I364
I3
I21
I81
I150
tp3988
a(I364
I2
I17
I85
I153
tp3989
a(I276
I30
I21
I80
I151
tp3990
a(I276
I31
I21
I81
I150
tp3991
a(I363
I31
I21
I81
I150
tp3992
a(I363
I30
I21
I81
I150
tp3993
a(I363
I29
I21
I81
I150
tp3994
a(I363
I28
I21
I81
I150
tp3995
a(I363
I27
I21
I81
I150
tp3996
a(I363
I14
I32
I96
I159
tp3997
a(I363
I13
I21
I81
I150
tp3998
a(I363
I12
I21
I81
I150
tp3999
a(I363
I11
I21
I81
I150
tp4000
a(I363
I10
I21
I81
I150
tp4001
a(I363
I9
I21
I81
I150
tp4002
a(I363
I8
I21
I81
I150
tp4003
a(I363
I7
I21
I81
I150
tp4004
a(I363
I6
I21
I81
I150
tp4005
a(I363
I5
I21
I81
I150
tp4006
a(I363
I4
I21
I81
I150
tp4007
a(I363
I3
I22
I81
I150
tp4008
a(I277
I30
I23
I82
I150
tp4009
a(I277
I31
I21
I81
I150
tp4010
a(I362
I31
I21
I81
I150
tp4011
a(I362
I30
I21
I81
I150
tp4012
a(I362
I29
I21
I81
I150
tp4013
a(I362
I28
I21
I81
I150
tp4014
a(I362
I27
I21
I81
I150
tp4015
a(I362
I26
I21
I82
I148
tp4016
a(I362
I14
I22
I81
I150
tp4017
a(I362
I13
I21
I81
I150
tp4018
a(I362
I12
I21
I81
I150
tp4019
a(I362
I11
I21
I81
I150
tp4020
a(I362
I10
I21
I81
I150
tp4021
a(I362
I9
I21
I81
I150
tp4022
a(I362
I8
I21
I81
I150
tp4023
a(I362
I7
I21
I81
I150
tp4024
a(I362
I6
I21
I81
I150
tp4025
a(I362
I5
I21
I81
I150
tp4026
a(I362
I4
I21
I81
I150
tp4027
a(I362
I3
I21
I80
I149
tp4028
a(I278
I30
I20
I82
I153
tp4029
a(I278
I31
I21
I81
I150
tp4030
a(I361
I31
I21
I81
I150
tp4031
a(I361
I30
I21
I81
I150
tp4032
a(I361
I29
I21
I81
I150
tp4033
a(I361
I28
I21
I81
I150
tp4034
a(I361
I27
I21
I81
I150
tp4035
a(I361
I26
I21
I81
I150
tp4036
a(I361
I25
I21
I85
I149
tp4037
a(I361
I15
I20
I82
I148
tp4038
a(I361
I14
I21
I81
I150
tp4039
a(I361
I13
I21
I81
I150
tp4040
a(I361
I12
I21
I81
I150
tp4041
a(I361
I11
I21
I81
I150
tp4042
a(I361
I10
I21
I81
I150
tp4043
a(I361
I9
I21
I81
I150
tp4044
a(I361
I8
I21
I81
I150
tp4045
a(I361
I7
I21
I81
I150
tp4046
a(I361
I6
I21
I81
I150
tp4047
a(I361
I5
I21
I81
I150
tp4048
a(I361
I4
I21
I81
I150
tp4049
a(I361
I3
I21
I81
I149
tp4050
a(I279
I31
I21
I81
I150
tp4051
a(I360
I31
I21
I81
I150
tp4052
a(I360
I30
I21
I81
I150
tp4053
a(I360
I29
I21
I81
I150
tp4054
a(I360
I28
I21
I81
I150
tp4055
a(I360
I27
I21
I81
I150
tp4056
a(I360
I26
I21
I81
I150
tp4057
a(I360
I25
I22
I81
I149
tp4058
a(I360
I24
I0
I0
I255
tp4059
a(I360
I16
I14
I85
I156
tp4060
a(I360
I15
I21
I81
I150
tp4061
a(I360
I14
I21
I81
I150
tp4062
a(I360
I13
I21
I81
I150
tp4063
a(I360
I12
I21
I81
I150
tp4064
a(I360
I11
I21
I81
I150
tp4065
a(I360
I10
I21
I81
I150
tp4066
a(I360
I9
I21
I81
I150
tp4067
a(I360
I8
I21
I81
I150
tp4068
a(I360
I7
I21
I81
I150
tp4069
a(I360
I6
I21
I81
I150
tp4070
a(I360
I5
I21
I81
I150
tp4071
a(I360
I4
I21
I81
I150
tp4072
a(I360
I3
I21
I81
I150
tp4073
a(I280
I31
I21
I80
I150
tp4074
a(I359
I31
I21
I81
I150
tp4075
a(I359
I30
I21
I81
I150
tp4076
a(I359
I29
I21
I81
I150
tp4077
a(I359
I28
I21
I81
I150
tp4078
a(I359
I27
I21
I81
I150
tp4079
a(I359
I26
I21
I81
I150
tp4080
a(I359
I25
I21
I81
I150
tp4081
a(I359
I24
I21
I80
I150
tp4082
a(I359
I23
I0
I128
I128
tp4083
a(I359
I17
I18
I73
I146
tp4084
a(I359
I16
I21
I81
I150
tp4085
a(I359
I15
I21
I81
I150
tp4086
a(I359
I14
I21
I81
I150
tp4087
a(I359
I13
I21
I81
I150
tp4088
a(I359
I12
I21
I81
I150
tp4089
a(I359
I11
I21
I81
I150
tp4090
a(I359
I10
I21
I81
I150
tp4091
a(I359
I9
I21
I81
I150
tp4092
a(I359
I8
I21
I81
I150
tp4093
a(I359
I7
I21
I81
I150
tp4094
a(I359
I6
I21
I81
I150
tp4095
a(I359
I5
I21
I81
I150
tp4096
a(I359
I4
I21
I81
I150
tp4097
a(I359
I3
I20
I80
I150
tp4098
a(I281
I31
I21
I81
I149
tp4099
a(I358
I31
I21
I81
I150
tp4100
a(I358
I30
I21
I81
I150
tp4101
a(I358
I29
I21
I81
I150
tp4102
a(I358
I28
I21
I81
I150
tp4103
a(I358
I27
I21
I81
I150
tp4104
a(I358
I26
I21
I81
I150
tp4105
a(I358
I25
I21
I81
I150
tp4106
a(I358
I24
I21
I81
I150
tp4107
a(I358
I23
I21
I80
I149
tp4108
a(I358
I22
I23
I77
I147
tp4109
a(I358
I18
I22
I80
I149
tp4110
a(I358
I17
I21
I82
I150
tp4111
a(I358
I16
I21
I81
I150
tp4112
a(I358
I15
I21
I81
I150
tp4113
a(I358
I14
I21
I81
I150
tp4114
a(I358
I13
I21
I81
I150
tp4115
a(I358
I12
I21
I81
I150
tp4116
a(I358
I11
I21
I81
I150
tp4117
a(I358
I10
I21
I81
I150
tp4118
a(I358
I9
I21
I81
I150
tp4119
a(I358
I8
I21
I81
I150
tp4120
a(I358
I7
I21
I81
I150
tp4121
a(I358
I6
I21
I81
I150
tp4122
a(I358
I5
I21
I81
I150
tp4123
a(I358
I4
I21
I81
I150
tp4124
a(I358
I3
I23
I83
I150
tp4125
a(I282
I31
I21
I82
I150
tp4126
a(I357
I31
I21
I81
I150
tp4127
a(I357
I30
I21
I81
I150
tp4128
a(I357
I29
I21
I81
I150
tp4129
a(I357
I28
I21
I81
I150
tp4130
a(I357
I27
I21
I81
I150
tp4131
a(I357
I26
I21
I81
I150
tp4132
a(I357
I25
I21
I81
I150
tp4133
a(I357
I24
I21
I81
I150
tp4134
a(I357
I23
I21
I81
I150
tp4135
a(I357
I22
I21
I81
I150
tp4136
a(I357
I21
I20
I82
I150
tp4137
a(I357
I20
I21
I81
I149
tp4138
a(I357
I19
I20
I81
I150
tp4139
a(I357
I18
I21
I81
I150
tp4140
a(I357
I17
I21
I81
I150
tp4141
a(I357
I16
I21
I81
I150
tp4142
a(I357
I15
I21
I81
I150
tp4143
a(I357
I14
I21
I81
I150
tp4144
a(I357
I13
I21
I81
I150
tp4145
a(I357
I12
I21
I81
I150
tp4146
a(I357
I11
I21
I81
I150
tp4147
a(I357
I10
I21
I81
I150
tp4148
a(I357
I9
I21
I81
I150
tp4149
a(I357
I8
I21
I81
I150
tp4150
a(I357
I7
I21
I81
I150
tp4151
a(I357
I6
I21
I81
I150
tp4152
a(I357
I5
I21
I81
I150
tp4153
a(I357
I4
I21
I81
I150
tp4154
a(I357
I3
I18
I82
I146
tp4155
a(I283
I31
I22
I82
I151
tp4156
a(I356
I31
I21
I81
I150
tp4157
a(I356
I30
I21
I81
I150
tp4158
a(I356
I29
I21
I81
I150
tp4159
a(I356
I28
I21
I81
I150
tp4160
a(I356
I27
I21
I81
I150
tp4161
a(I356
I26
I21
I81
I150
tp4162
a(I356
I25
I21
I81
I150
tp4163
a(I356
I24
I21
I81
I150
tp4164
a(I356
I23
I21
I81
I150
tp4165
a(I356
I22
I21
I81
I150
tp4166
a(I356
I21
I21
I81
I150
tp4167
a(I356
I20
I21
I81
I150
tp4168
a(I356
I19
I21
I81
I150
tp4169
a(I356
I18
I21
I81
I150
tp4170
a(I356
I17
I21
I81
I150
tp4171
a(I356
I16
I21
I81
I150
tp4172
a(I356
I15
I21
I81
I150
tp4173
a(I356
I14
I21
I81
I150
tp4174
a(I356
I13
I21
I81
I150
tp4175
a(I356
I12
I21
I81
I150
tp4176
a(I356
I11
I21
I81
I150
tp4177
a(I356
I10
I21
I81
I150
tp4178
a(I356
I9
I21
I81
I150
tp4179
a(I356
I8
I21
I81
I150
tp4180
a(I356
I7
I21
I81
I150
tp4181
a(I356
I6
I21
I81
I150
tp4182
a(I356
I5
I21
I81
I150
tp4183
a(I356
I4
I21
I81
I150
tp4184
a(I284
I31
I23
I79
I148
tp4185
a(I355
I31
I21
I81
I150
tp4186
a(I355
I30
I21
I81
I150
tp4187
a(I355
I29
I21
I81
I150
tp4188
a(I355
I28
I21
I81
I150
tp4189
a(I355
I27
I21
I81
I150
tp4190
a(I355
I26
I21
I81
I150
tp4191
a(I355
I25
I21
I81
I150
tp4192
a(I355
I24
I21
I81
I150
tp4193
a(I355
I23
I21
I81
I150
tp4194
a(I355
I22
I21
I81
I150
tp4195
a(I355
I21
I21
I81
I150
tp4196
a(I355
I20
I21
I81
I150
tp4197
a(I355
I19
I21
I81
I150
tp4198
a(I355
I18
I21
I81
I150
tp4199
a(I355
I17
I21
I81
I150
tp4200
a(I355
I16
I21
I81
I150
tp4201
a(I355
I15
I21
I81
I150
tp4202
a(I355
I14
I21
I81
I150
tp4203
a(I355
I13
I21
I81
I150
tp4204
a(I355
I12
I21
I81
I150
tp4205
a(I355
I11
I21
I81
I150
tp4206
a(I355
I10
I21
I81
I150
tp4207
a(I355
I9
I21
I81
I150
tp4208
a(I355
I8
I21
I81
I150
tp4209
a(I355
I7
I21
I81
I150
tp4210
a(I355
I6
I21
I81
I150
tp4211
a(I355
I5
I21
I81
I150
tp4212
a(I355
I4
I20
I82
I150
tp4213
a(I285
I31
I20
I78
I157
tp4214
a(I354
I31
I21
I81
I150
tp4215
a(I354
I30
I21
I81
I150
tp4216
a(I354
I29
I21
I81
I150
tp4217
a(I354
I28
I21
I81
I150
tp4218
a(I354
I27
I21
I81
I150
tp4219
a(I354
I26
I21
I81
I150
tp4220
a(I354
I25
I21
I81
I150
tp4221
a(I354
I24
I21
I81
I150
tp4222
a(I354
I23
I21
I81
I150
tp4223
a(I354
I22
I21
I81
I150
tp4224
a(I354
I21
I21
I81
I150
tp4225
a(I354
I20
I21
I81
I150
tp4226
a(I354
I19
I21
I81
I150
tp4227
a(I354
I18
I21
I81
I150
tp4228
a(I354
I17
I21
I81
I150
tp4229
a(I354
I16
I21
I81
I150
tp4230
a(I354
I15
I21
I81
I150
tp4231
a(I354
I14
I21
I81
I150
tp4232
a(I354
I13
I21
I81
I150
tp4233
a(I354
I12
I21
I81
I150
tp4234
a(I354
I11
I21
I81
I150
tp4235
a(I354
I10
I21
I81
I150
tp4236
a(I354
I9
I21
I81
I150
tp4237
a(I354
I8
I21
I81
I150
tp4238
a(I354
I7
I21
I81
I150
tp4239
a(I354
I6
I21
I81
I150
tp4240
a(I354
I5
I21
I81
I150
tp4241
a(I354
I4
I21
I81
I150
tp4242
a(I353
I31
I21
I81
I150
tp4243
a(I353
I30
I21
I81
I150
tp4244
a(I353
I29
I21
I81
I150
tp4245
a(I353
I28
I21
I81
I150
tp4246
a(I353
I27
I21
I81
I150
tp4247
a(I353
I26
I21
I81
I150
tp4248
a(I353
I25
I21
I81
I150
tp4249
a(I353
I24
I21
I81
I150
tp4250
a(I353
I23
I21
I81
I150
tp4251
a(I353
I22
I21
I81
I150
tp4252
a(I353
I21
I21
I81
I150
tp4253
a(I353
I20
I21
I81
I150
tp4254
a(I353
I19
I21
I81
I150
tp4255
a(I353
I18
I21
I81
I150
tp4256
a(I353
I17
I21
I81
I150
tp4257
a(I353
I16
I21
I81
I150
tp4258
a(I353
I15
I21
I81
I150
tp4259
a(I353
I14
I21
I81
I150
tp4260
a(I353
I13
I21
I81
I150
tp4261
a(I353
I12
I21
I81
I150
tp4262
a(I353
I11
I21
I81
I150
tp4263
a(I353
I10
I21
I81
I150
tp4264
a(I353
I9
I21
I81
I150
tp4265
a(I353
I8
I21
I81
I150
tp4266
a(I353
I7
I21
I81
I150
tp4267
a(I353
I6
I21
I81
I150
tp4268
a(I353
I5
I21
I81
I150
tp4269
a(I353
I4
I22
I81
I150
tp4270
a(I352
I31
I20
I81
I151
tp4271
a(I352
I30
I21
I81
I150
tp4272
a(I352
I29
I21
I81
I150
tp4273
a(I352
I28
I21
I81
I150
tp4274
a(I352
I27
I21
I81
I150
tp4275
a(I352
I26
I21
I81
I150
tp4276
a(I352
I25
I21
I81
I150
tp4277
a(I352
I24
I21
I81
I150
tp4278
a(I352
I23
I21
I81
I150
tp4279
a(I352
I22
I21
I81
I150
tp4280
a(I352
I21
I21
I81
I150
tp4281
a(I352
I20
I21
I81
I150
tp4282
a(I352
I19
I21
I81
I150
tp4283
a(I352
I18
I21
I81
I150
tp4284
a(I352
I17
I21
I81
I150
tp4285
a(I352
I16
I21
I81
I150
tp4286
a(I352
I15
I21
I81
I150
tp4287
a(I352
I14
I21
I81
I150
tp4288
a(I352
I13
I21
I81
I150
tp4289
a(I352
I12
I21
I81
I150
tp4290
a(I352
I11
I21
I81
I150
tp4291
a(I352
I10
I21
I81
I150
tp4292
a(I352
I9
I21
I81
I150
tp4293
a(I352
I8
I21
I81
I150
tp4294
a(I352
I7
I21
I81
I150
tp4295
a(I352
I6
I21
I81
I150
tp4296
a(I352
I5
I21
I81
I150
tp4297
a(I352
I4
I20
I82
I150
tp4298
a(I351
I31
I21
I82
I150
tp4299
a(I351
I30
I21
I81
I150
tp4300
a(I351
I29
I21
I81
I150
tp4301
a(I351
I28
I21
I81
I150
tp4302
a(I351
I27
I21
I81
I150
tp4303
a(I351
I26
I21
I81
I150
tp4304
a(I351
I25
I21
I81
I150
tp4305
a(I351
I24
I21
I81
I150
tp4306
a(I351
I23
I21
I81
I150
tp4307
a(I351
I22
I21
I81
I150
tp4308
a(I351
I21
I21
I81
I150
tp4309
a(I351
I20
I21
I81
I150
tp4310
a(I351
I19
I21
I81
I150
tp4311
a(I351
I18
I21
I81
I150
tp4312
a(I351
I17
I21
I81
I150
tp4313
a(I351
I16
I21
I81
I150
tp4314
a(I351
I15
I21
I81
I150
tp4315
a(I351
I14
I21
I81
I150
tp4316
a(I351
I13
I21
I81
I150
tp4317
a(I351
I12
I21
I81
I150
tp4318
a(I351
I11
I21
I81
I150
tp4319
a(I351
I10
I21
I81
I150
tp4320
a(I351
I9
I21
I81
I150
tp4321
a(I351
I8
I21
I81
I150
tp4322
a(I351
I7
I21
I81
I150
tp4323
a(I351
I6
I21
I81
I150
tp4324
a(I351
I5
I21
I81
I150
tp4325
a(I351
I4
I18
I82
I146
tp4326
a(I350
I31
I21
I81
I150
tp4327
a(I350
I30
I21
I81
I150
tp4328
a(I350
I29
I21
I81
I150
tp4329
a(I350
I28
I21
I81
I150
tp4330
a(I350
I27
I21
I81
I150
tp4331
a(I350
I26
I21
I81
I150
tp4332
a(I350
I25
I21
I81
I150
tp4333
a(I350
I24
I21
I81
I150
tp4334
a(I350
I23
I21
I81
I150
tp4335
a(I350
I22
I21
I81
I150
tp4336
a(I350
I21
I21
I81
I150
tp4337
a(I350
I20
I21
I81
I150
tp4338
a(I350
I19
I21
I81
I150
tp4339
a(I350
I18
I21
I81
I150
tp4340
a(I350
I17
I21
I81
I150
tp4341
a(I350
I16
I21
I81
I150
tp4342
a(I350
I15
I21
I81
I150
tp4343
a(I350
I14
I21
I81
I150
tp4344
a(I350
I13
I21
I81
I150
tp4345
a(I350
I12
I21
I81
I150
tp4346
a(I350
I11
I21
I81
I150
tp4347
a(I350
I10
I21
I81
I150
tp4348
a(I350
I9
I21
I81
I150
tp4349
a(I350
I8
I21
I81
I150
tp4350
a(I350
I7
I21
I81
I150
tp4351
a(I350
I6
I21
I81
I150
tp4352
a(I350
I5
I21
I81
I150
tp4353
a(I349
I31
I20
I81
I148
tp4354
a(I349
I30
I21
I81
I150
tp4355
a(I349
I29
I21
I81
I150
tp4356
a(I349
I28
I21
I81
I150
tp4357
a(I349
I27
I21
I81
I150
tp4358
a(I349
I26
I21
I81
I150
tp4359
a(I349
I25
I21
I81
I150
tp4360
a(I349
I24
I21
I81
I150
tp4361
a(I349
I23
I21
I81
I150
tp4362
a(I349
I22
I21
I81
I150
tp4363
a(I349
I21
I21
I81
I150
tp4364
a(I349
I20
I21
I81
I150
tp4365
a(I349
I19
I21
I81
I150
tp4366
a(I349
I18
I21
I81
I150
tp4367
a(I349
I17
I21
I81
I150
tp4368
a(I349
I16
I21
I81
I150
tp4369
a(I349
I15
I21
I81
I150
tp4370
a(I349
I14
I21
I81
I150
tp4371
a(I349
I13
I21
I81
I150
tp4372
a(I349
I12
I21
I81
I150
tp4373
a(I349
I11
I21
I81
I150
tp4374
a(I349
I10
I21
I81
I150
tp4375
a(I349
I9
I21
I81
I150
tp4376
a(I349
I8
I21
I81
I150
tp4377
a(I349
I7
I21
I81
I150
tp4378
a(I349
I6
I21
I81
I150
tp4379
a(I349
I5
I21
I81
I150
tp4380
a(I348
I31
I0
I0
I255
tp4381
a(I348
I30
I21
I81
I150
tp4382
a(I348
I29
I21
I81
I150
tp4383
a(I348
I28
I21
I81
I150
tp4384
a(I348
I27
I21
I81
I150
tp4385
a(I348
I26
I21
I81
I150
tp4386
a(I348
I25
I21
I81
I150
tp4387
a(I348
I24
I21
I81
I150
tp4388
a(I348
I23
I21
I81
I150
tp4389
a(I348
I22
I21
I81
I150
tp4390
a(I348
I21
I21
I81
I150
tp4391
a(I348
I20
I21
I81
I150
tp4392
a(I348
I19
I21
I81
I150
tp4393
a(I348
I18
I21
I81
I150
tp4394
a(I348
I17
I21
I81
I150
tp4395
a(I348
I16
I21
I81
I150
tp4396
a(I348
I15
I21
I81
I150
tp4397
a(I348
I14
I21
I81
I150
tp4398
a(I348
I13
I21
I81
I150
tp4399
a(I348
I12
I21
I81
I150
tp4400
a(I348
I11
I21
I81
I150
tp4401
a(I348
I10
I21
I81
I150
tp4402
a(I348
I9
I21
I81
I150
tp4403
a(I348
I8
I21
I81
I150
tp4404
a(I348
I7
I21
I81
I150
tp4405
a(I348
I6
I21
I81
I150
tp4406
a(I348
I5
I21
I81
I151
tp4407
a(I347
I30
I21
I80
I150
tp4408
a(I347
I29
I21
I81
I150
tp4409
a(I347
I28
I21
I81
I150
tp4410
a(I347
I27
I21
I81
I150
tp4411
a(I347
I26
I21
I81
I150
tp4412
a(I347
I25
I21
I81
I150
tp4413
a(I347
I24
I21
I81
I150
tp4414
a(I347
I23
I21
I81
I150
tp4415
a(I347
I22
I21
I81
I150
tp4416
a(I347
I21
I21
I81
I150
tp4417
a(I347
I20
I21
I81
I150
tp4418
a(I347
I19
I21
I81
I150
tp4419
a(I347
I18
I21
I81
I150
tp4420
a(I347
I17
I21
I81
I150
tp4421
a(I347
I16
I21
I81
I150
tp4422
a(I347
I15
I21
I81
I150
tp4423
a(I347
I14
I21
I81
I150
tp4424
a(I347
I13
I21
I81
I150
tp4425
a(I347
I12
I21
I81
I150
tp4426
a(I347
I11
I21
I81
I150
tp4427
a(I347
I10
I21
I81
I150
tp4428
a(I347
I9
I21
I81
I150
tp4429
a(I347
I8
I21
I81
I150
tp4430
a(I347
I7
I21
I81
I150
tp4431
a(I347
I6
I21
I81
I150
tp4432
a(I347
I5
I22
I81
I149
tp4433
a(I346
I30
I22
I81
I150
tp4434
a(I346
I29
I21
I81
I150
tp4435
a(I346
I28
I21
I81
I150
tp4436
a(I346
I27
I21
I81
I150
tp4437
a(I346
I26
I21
I81
I150
tp4438
a(I346
I25
I21
I81
I150
tp4439
a(I346
I24
I21
I81
I150
tp4440
a(I346
I23
I21
I81
I150
tp4441
a(I346
I22
I21
I81
I150
tp4442
a(I346
I21
I21
I81
I150
tp4443
a(I346
I20
I21
I81
I150
tp4444
a(I346
I19
I21
I81
I150
tp4445
a(I346
I18
I21
I81
I150
tp4446
a(I346
I17
I21
I81
I150
tp4447
a(I346
I16
I21
I81
I150
tp4448
a(I346
I15
I21
I81
I150
tp4449
a(I346
I14
I21
I81
I150
tp4450
a(I346
I13
I21
I81
I150
tp4451
a(I346
I12
I21
I81
I150
tp4452
a(I346
I11
I21
I81
I150
tp4453
a(I346
I10
I21
I81
I150
tp4454
a(I346
I9
I21
I81
I150
tp4455
a(I346
I8
I21
I81
I150
tp4456
a(I346
I7
I21
I81
I150
tp4457
a(I346
I6
I21
I81
I150
tp4458
a(I346
I5
I17
I85
I153
tp4459
a(I345
I30
I20
I82
I150
tp4460
a(I345
I29
I21
I81
I150
tp4461
a(I345
I28
I21
I81
I150
tp4462
a(I345
I27
I21
I81
I150
tp4463
a(I345
I26
I21
I81
I150
tp4464
a(I345
I25
I21
I81
I150
tp4465
a(I345
I24
I21
I81
I150
tp4466
a(I345
I23
I21
I81
I150
tp4467
a(I345
I22
I21
I81
I150
tp4468
a(I345
I21
I21
I81
I150
tp4469
a(I345
I20
I21
I81
I150
tp4470
a(I345
I19
I21
I81
I150
tp4471
a(I345
I18
I21
I81
I150
tp4472
a(I345
I17
I21
I81
I150
tp4473
a(I345
I16
I21
I81
I150
tp4474
a(I345
I15
I21
I81
I150
tp4475
a(I345
I14
I21
I81
I150
tp4476
a(I345
I13
I21
I81
I150
tp4477
a(I345
I12
I21
I81
I150
tp4478
a(I345
I11
I21
I81
I150
tp4479
a(I345
I10
I21
I81
I150
tp4480
a(I345
I9
I21
I81
I150
tp4481
a(I345
I8
I21
I81
I150
tp4482
a(I345
I7
I21
I81
I150
tp4483
a(I345
I6
I21
I81
I150
tp4484
a(I344
I30
I26
I77
I153
tp4485
a(I344
I29
I21
I81
I150
tp4486
a(I344
I28
I21
I81
I150
tp4487
a(I344
I27
I21
I81
I150
tp4488
a(I344
I26
I21
I81
I150
tp4489
a(I344
I25
I21
I81
I150
tp4490
a(I344
I24
I21
I81
I150
tp4491
a(I344
I23
I21
I81
I150
tp4492
a(I344
I22
I21
I81
I150
tp4493
a(I344
I21
I21
I81
I150
tp4494
a(I344
I20
I21
I81
I150
tp4495
a(I344
I19
I21
I81
I150
tp4496
a(I344
I18
I21
I81
I150
tp4497
a(I344
I17
I21
I81
I150
tp4498
a(I344
I16
I21
I81
I150
tp4499
a(I344
I15
I21
I81
I150
tp4500
a(I344
I14
I21
I81
I150
tp4501
a(I344
I13
I21
I81
I150
tp4502
a(I344
I12
I21
I81
I150
tp4503
a(I344
I11
I21
I81
I150
tp4504
a(I344
I10
I21
I81
I150
tp4505
a(I344
I9
I21
I81
I150
tp4506
a(I344
I8
I21
I81
I150
tp4507
a(I344
I7
I21
I81
I150
tp4508
a(I344
I6
I22
I81
I149
tp4509
a(I343
I29
I21
I81
I150
tp4510
a(I343
I28
I21
I81
I150
tp4511
a(I343
I27
I21
I81
I150
tp4512
a(I343
I26
I21
I81
I150
tp4513
a(I343
I25
I21
I81
I150
tp4514
a(I343
I24
I21
I81
I150
tp4515
a(I343
I23
I21
I81
I150
tp4516
a(I343
I22
I21
I81
I150
tp4517
a(I343
I21
I21
I81
I150
tp4518
a(I343
I20
I21
I81
I150
tp4519
a(I343
I19
I21
I81
I150
tp4520
a(I343
I18
I21
I81
I150
tp4521
a(I343
I17
I21
I81
I150
tp4522
a(I343
I16
I21
I81
I150
tp4523
a(I343
I15
I21
I81
I150
tp4524
a(I343
I14
I21
I81
I150
tp4525
a(I343
I13
I21
I81
I150
tp4526
a(I343
I12
I21
I81
I150
tp4527
a(I343
I11
I21
I81
I150
tp4528
a(I343
I10
I21
I81
I150
tp4529
a(I343
I9
I21
I81
I150
tp4530
a(I343
I8
I21
I81
I150
tp4531
a(I343
I7
I21
I81
I150
tp4532
a(I343
I6
I20
I82
I151
tp4533
a(I342
I29
I21
I81
I149
tp4534
a(I342
I28
I21
I81
I150
tp4535
a(I342
I27
I21
I81
I150
tp4536
a(I342
I26
I21
I81
I150
tp4537
a(I342
I25
I21
I81
I150
tp4538
a(I342
I24
I21
I81
I150
tp4539
a(I342
I23
I21
I81
I150
tp4540
a(I342
I22
I21
I81
I150
tp4541
a(I342
I21
I21
I81
I150
tp4542
a(I342
I20
I21
I81
I150
tp4543
a(I342
I19
I21
I81
I150
tp4544
a(I342
I18
I21
I81
I150
tp4545
a(I342
I17
I21
I81
I150
tp4546
a(I342
I16
I21
I81
I150
tp4547
a(I342
I15
I21
I81
I150
tp4548
a(I342
I14
I21
I81
I150
tp4549
a(I342
I13
I21
I81
I150
tp4550
a(I342
I12
I21
I81
I150
tp4551
a(I342
I11
I21
I81
I150
tp4552
a(I342
I10
I21
I81
I150
tp4553
a(I342
I9
I21
I81
I150
tp4554
a(I342
I8
I21
I81
I150
tp4555
a(I342
I7
I21
I81
I150
tp4556
a(I342
I6
I18
I79
I152
tp4557
a(I341
I29
I22
I80
I150
tp4558
a(I341
I28
I21
I81
I150
tp4559
a(I341
I27
I21
I81
I150
tp4560
a(I341
I26
I21
I81
I150
tp4561
a(I341
I25
I21
I81
I150
tp4562
a(I341
I24
I21
I81
I150
tp4563
a(I341
I23
I21
I81
I150
tp4564
a(I341
I22
I21
I81
I150
tp4565
a(I341
I21
I21
I81
I150
tp4566
a(I341
I20
I21
I81
I150
tp4567
a(I341
I19
I21
I81
I150
tp4568
a(I341
I18
I21
I81
I150
tp4569
a(I341
I17
I21
I81
I150
tp4570
a(I341
I16
I21
I81
I150
tp4571
a(I341
I15
I21
I81
I150
tp4572
a(I341
I14
I21
I81
I150
tp4573
a(I341
I13
I21
I81
I150
tp4574
a(I341
I12
I21
I81
I150
tp4575
a(I341
I11
I21
I81
I150
tp4576
a(I341
I10
I21
I81
I150
tp4577
a(I341
I9
I21
I81
I150
tp4578
a(I341
I8
I21
I81
I150
tp4579
a(I341
I7
I21
I81
I150
tp4580
a(I341
I6
I0
I0
I255
tp4581
a(I340
I29
I15
I75
I150
tp4582
a(I340
I28
I21
I81
I150
tp4583
a(I340
I27
I21
I81
I150
tp4584
a(I340
I26
I21
I81
I150
tp4585
a(I340
I25
I21
I81
I150
tp4586
a(I340
I24
I21
I81
I150
tp4587
a(I340
I23
I21
I81
I150
tp4588
a(I340
I22
I21
I81
I150
tp4589
a(I340
I21
I21
I81
I150
tp4590
a(I340
I20
I21
I81
I150
tp4591
a(I340
I19
I21
I81
I150
tp4592
a(I340
I18
I21
I81
I150
tp4593
a(I340
I17
I21
I81
I150
tp4594
a(I340
I16
I21
I81
I150
tp4595
a(I340
I15
I21
I81
I150
tp4596
a(I340
I14
I21
I81
I150
tp4597
a(I340
I13
I21
I81
I150
tp4598
a(I340
I12
I21
I81
I150
tp4599
a(I340
I11
I21
I81
I150
tp4600
a(I340
I10
I21
I81
I150
tp4601
a(I340
I9
I21
I81
I150
tp4602
a(I340
I8
I21
I81
I150
tp4603
a(I340
I7
I22
I81
I149
tp4604
a(I339
I28
I21
I81
I150
tp4605
a(I339
I27
I21
I81
I150
tp4606
a(I339
I26
I21
I81
I150
tp4607
a(I339
I25
I21
I81
I150
tp4608
a(I339
I24
I21
I81
I150
tp4609
a(I339
I23
I21
I81
I150
tp4610
a(I339
I22
I21
I81
I150
tp4611
a(I339
I21
I21
I81
I150
tp4612
a(I339
I20
I21
I81
I150
tp4613
a(I339
I19
I21
I81
I150
tp4614
a(I339
I18
I21
I81
I150
tp4615
a(I339
I17
I21
I81
I150
tp4616
a(I339
I16
I21
I81
I150
tp4617
a(I339
I15
I21
I81
I150
tp4618
a(I339
I14
I21
I81
I150
tp4619
a(I339
I13
I21
I81
I150
tp4620
a(I339
I12
I21
I81
I150
tp4621
a(I339
I11
I21
I81
I150
tp4622
a(I339
I10
I21
I81
I150
tp4623
a(I339
I9
I21
I81
I150
tp4624
a(I339
I8
I21
I81
I150
tp4625
a(I339
I7
I20
I80
I149
tp4626
a(I338
I28
I21
I81
I149
tp4627
a(I338
I27
I21
I81
I150
tp4628
a(I338
I26
I21
I81
I150
tp4629
a(I338
I25
I21
I81
I150
tp4630
a(I338
I24
I21
I81
I150
tp4631
a(I338
I23
I21
I81
I150
tp4632
a(I338
I22
I21
I81
I150
tp4633
a(I338
I21
I21
I81
I150
tp4634
a(I338
I20
I21
I81
I150
tp4635
a(I338
I19
I21
I81
I150
tp4636
a(I338
I18
I21
I81
I150
tp4637
a(I338
I17
I21
I81
I150
tp4638
a(I338
I16
I21
I81
I150
tp4639
a(I338
I15
I21
I81
I150
tp4640
a(I338
I14
I21
I81
I150
tp4641
a(I338
I13
I21
I81
I150
tp4642
a(I338
I12
I21
I81
I150
tp4643
a(I338
I11
I21
I81
I150
tp4644
a(I338
I10
I21
I81
I150
tp4645
a(I338
I9
I21
I81
I150
tp4646
a(I338
I8
I21
I81
I150
tp4647
a(I338
I7
I27
I81
I148
tp4648
a(I337
I28
I23
I81
I151
tp4649
a(I337
I27
I21
I81
I150
tp4650
a(I337
I26
I21
I81
I150
tp4651
a(I337
I25
I21
I81
I150
tp4652
a(I337
I24
I21
I81
I150
tp4653
a(I337
I23
I21
I81
I150
tp4654
a(I337
I22
I21
I81
I150
tp4655
a(I337
I21
I21
I81
I150
tp4656
a(I337
I20
I21
I81
I150
tp4657
a(I337
I19
I21
I81
I150
tp4658
a(I337
I18
I21
I81
I150
tp4659
a(I337
I17
I21
I81
I150
tp4660
a(I337
I16
I21
I81
I150
tp4661
a(I337
I15
I21
I81
I150
tp4662
a(I337
I14
I21
I81
I150
tp4663
a(I337
I13
I21
I81
I150
tp4664
a(I337
I12
I21
I81
I150
tp4665
a(I337
I11
I21
I81
I150
tp4666
a(I337
I10
I21
I81
I150
tp4667
a(I337
I9
I21
I81
I150
tp4668
a(I337
I8
I21
I81
I150
tp4669
a(I336
I27
I21
I81
I150
tp4670
a(I336
I26
I21
I81
I150
tp4671
a(I336
I25
I21
I81
I150
tp4672
a(I336
I24
I21
I81
I150
tp4673
a(I336
I23
I21
I81
I150
tp4674
a(I336
I22
I21
I81
I150
tp4675
a(I336
I21
I21
I81
I150
tp4676
a(I336
I20
I21
I81
I150
tp4677
a(I336
I19
I21
I81
I150
tp4678
a(I336
I18
I21
I81
I150
tp4679
a(I336
I17
I21
I81
I150
tp4680
a(I336
I16
I21
I81
I150
tp4681
a(I336
I15
I21
I81
I150
tp4682
a(I336
I14
I21
I81
I150
tp4683
a(I336
I13
I21
I81
I150
tp4684
a(I336
I12
I21
I81
I150
tp4685
a(I336
I11
I21
I81
I150
tp4686
a(I336
I10
I21
I81
I150
tp4687
a(I336
I9
I21
I81
I150
tp4688
a(I336
I8
I22
I80
I149
tp4689
a(I335
I27
I20
I81
I150
tp4690
a(I335
I26
I21
I81
I150
tp4691
a(I335
I25
I21
I81
I150
tp4692
a(I335
I24
I21
I81
I150
tp4693
a(I335
I23
I21
I81
I150
tp4694
a(I335
I22
I21
I81
I150
tp4695
a(I335
I21
I21
I81
I150
tp4696
a(I335
I20
I21
I81
I150
tp4697
a(I335
I19
I21
I81
I150
tp4698
a(I335
I18
I21
I81
I150
tp4699
a(I335
I17
I21
I81
I150
tp4700
a(I335
I16
I21
I81
I150
tp4701
a(I335
I15
I21
I81
I150
tp4702
a(I335
I14
I21
I81
I150
tp4703
a(I335
I13
I21
I81
I150
tp4704
a(I335
I12
I21
I81
I150
tp4705
a(I335
I11
I21
I81
I150
tp4706
a(I335
I10
I21
I81
I150
tp4707
a(I335
I9
I21
I81
I150
tp4708
a(I335
I8
I18
I79
I149
tp4709
a(I334
I27
I23
I81
I151
tp4710
a(I334
I26
I21
I81
I150
tp4711
a(I334
I25
I21
I81
I150
tp4712
a(I334
I24
I21
I81
I150
tp4713
a(I334
I23
I21
I81
I150
tp4714
a(I334
I22
I21
I81
I150
tp4715
a(I334
I21
I21
I81
I150
tp4716
a(I334
I20
I21
I81
I150
tp4717
a(I334
I19
I21
I81
I150
tp4718
a(I334
I18
I21
I81
I150
tp4719
a(I334
I17
I21
I81
I150
tp4720
a(I334
I16
I21
I81
I150
tp4721
a(I334
I15
I21
I81
I150
tp4722
a(I334
I14
I21
I81
I150
tp4723
a(I334
I13
I21
I81
I150
tp4724
a(I334
I12
I21
I81
I150
tp4725
a(I334
I11
I21
I81
I150
tp4726
a(I334
I10
I21
I81
I150
tp4727
a(I334
I9
I21
I81
I150
tp4728
a(I333
I26
I21
I81
I150
tp4729
a(I333
I25
I21
I81
I150
tp4730
a(I333
I24
I21
I81
I150
tp4731
a(I333
I23
I21
I81
I150
tp4732
a(I333
I22
I21
I81
I150
tp4733
a(I333
I21
I21
I81
I150
tp4734
a(I333
I20
I21
I81
I150
tp4735
a(I333
I19
I21
I81
I150
tp4736
a(I333
I18
I21
I81
I150
tp4737
a(I333
I17
I21
I81
I150
tp4738
a(I333
I16
I21
I81
I150
tp4739
a(I333
I15
I21
I81
I150
tp4740
a(I333
I14
I21
I81
I150
tp4741
a(I333
I13
I21
I81
I150
tp4742
a(I333
I12
I21
I81
I150
tp4743
a(I333
I11
I21
I81
I150
tp4744
a(I333
I10
I21
I81
I150
tp4745
a(I333
I9
I21
I80
I149
tp4746
a(I332
I26
I22
I82
I149
tp4747
a(I332
I25
I21
I81
I150
tp4748
a(I332
I24
I21
I81
I150
tp4749
a(I332
I23
I21
I81
I150
tp4750
a(I332
I22
I21
I81
I150
tp4751
a(I332
I21
I21
I81
I150
tp4752
a(I332
I20
I21
I81
I150
tp4753
a(I332
I19
I21
I81
I150
tp4754
a(I332
I18
I21
I81
I150
tp4755
a(I332
I17
I21
I81
I150
tp4756
a(I332
I16
I21
I81
I150
tp4757
a(I332
I15
I21
I81
I150
tp4758
a(I332
I14
I21
I81
I150
tp4759
a(I332
I13
I21
I81
I150
tp4760
a(I332
I12
I21
I81
I150
tp4761
a(I332
I11
I21
I81
I150
tp4762
a(I332
I10
I21
I81
I150
tp4763
a(I332
I9
I17
I85
I153
tp4764
a(I331
I26
I17
I85
I153
tp4765
a(I331
I25
I21
I81
I150
tp4766
a(I331
I24
I21
I81
I150
tp4767
a(I331
I23
I21
I81
I150
tp4768
a(I331
I22
I21
I81
I150
tp4769
a(I331
I21
I21
I81
I150
tp4770
a(I331
I20
I21
I81
I150
tp4771
a(I331
I19
I21
I81
I150
tp4772
a(I331
I18
I21
I81
I150
tp4773
a(I331
I17
I21
I81
I150
tp4774
a(I331
I16
I21
I81
I150
tp4775
a(I331
I15
I21
I81
I150
tp4776
a(I331
I14
I21
I81
I150
tp4777
a(I331
I13
I21
I81
I150
tp4778
a(I331
I12
I21
I81
I150
tp4779
a(I331
I11
I21
I81
I150
tp4780
a(I331
I10
I21
I81
I149
tp4781
a(I330
I25
I21
I81
I149
tp4782
a(I330
I24
I21
I81
I150
tp4783
a(I330
I23
I21
I81
I150
tp4784
a(I330
I22
I21
I81
I150
tp4785
a(I330
I21
I21
I81
I150
tp4786
a(I330
I20
I21
I81
I150
tp4787
a(I330
I19
I21
I81
I150
tp4788
a(I330
I18
I21
I81
I150
tp4789
a(I330
I17
I21
I81
I150
tp4790
a(I330
I16
I21
I81
I150
tp4791
a(I330
I15
I21
I81
I150
tp4792
a(I330
I14
I21
I81
I150
tp4793
a(I330
I13
I21
I81
I150
tp4794
a(I330
I12
I21
I81
I150
tp4795
a(I330
I11
I21
I81
I150
tp4796
a(I330
I10
I23
I77
I147
tp4797
a(I329
I25
I23
I81
I151
tp4798
a(I329
I24
I21
I81
I150
tp4799
a(I329
I23
I21
I81
I150
tp4800
a(I329
I22
I21
I81
I150
tp4801
a(I329
I21
I21
I81
I150
tp4802
a(I329
I20
I21
I81
I150
tp4803
a(I329
I19
I21
I81
I150
tp4804
a(I329
I18
I21
I81
I150
tp4805
a(I329
I17
I21
I81
I150
tp4806
a(I329
I16
I21
I81
I150
tp4807
a(I329
I15
I21
I81
I150
tp4808
a(I329
I14
I21
I81
I150
tp4809
a(I329
I13
I21
I81
I150
tp4810
a(I329
I12
I21
I81
I150
tp4811
a(I329
I11
I21
I80
I150
tp4812
a(I328
I24
I20
I82
I151
tp4813
a(I328
I23
I21
I81
I150
tp4814
a(I328
I22
I21
I81
I150
tp4815
a(I328
I21
I21
I81
I150
tp4816
a(I328
I20
I21
I81
I150
tp4817
a(I328
I19
I21
I81
I150
tp4818
a(I328
I18
I21
I81
I150
tp4819
a(I328
I17
I21
I81
I150
tp4820
a(I328
I16
I21
I81
I150
tp4821
a(I328
I15
I21
I81
I150
tp4822
a(I328
I14
I21
I81
I150
tp4823
a(I328
I13
I21
I81
I150
tp4824
a(I328
I12
I21
I81
I150
tp4825
a(I328
I11
I23
I83
I150
tp4826
a(I327
I24
I26
I77
I153
tp4827
a(I327
I23
I21
I81
I150
tp4828
a(I327
I22
I21
I81
I150
tp4829
a(I327
I21
I21
I81
I150
tp4830
a(I327
I20
I21
I81
I150
tp4831
a(I327
I19
I21
I81
I150
tp4832
a(I327
I18
I21
I81
I150
tp4833
a(I327
I17
I21
I81
I150
tp4834
a(I327
I16
I21
I81
I150
tp4835
a(I327
I15
I21
I81
I150
tp4836
a(I327
I14
I21
I81
I150
tp4837
a(I327
I13
I21
I81
I150
tp4838
a(I327
I12
I22
I81
I150
tp4839
a(I326
I23
I21
I80
I150
tp4840
a(I326
I22
I21
I81
I150
tp4841
a(I326
I21
I21
I81
I150
tp4842
a(I326
I20
I21
I81
I150
tp4843
a(I326
I19
I21
I81
I150
tp4844
a(I326
I18
I21
I81
I150
tp4845
a(I326
I17
I21
I81
I150
tp4846
a(I326
I16
I21
I81
I150
tp4847
a(I326
I15
I21
I81
I150
tp4848
a(I326
I14
I21
I81
I150
tp4849
a(I326
I13
I21
I81
I150
tp4850
a(I326
I12
I28
I85
I142
tp4851
a(I325
I22
I22
I82
I149
tp4852
a(I325
I21
I21
I81
I150
tp4853
a(I325
I20
I21
I81
I150
tp4854
a(I325
I19
I21
I81
I150
tp4855
a(I325
I18
I21
I81
I150
tp4856
a(I325
I17
I21
I81
I150
tp4857
a(I325
I16
I21
I81
I150
tp4858
a(I325
I15
I21
I81
I150
tp4859
a(I325
I14
I21
I81
I150
tp4860
a(I325
I13
I24
I80
I151
tp4861
a(I324
I21
I21
I82
I150
tp4862
a(I324
I20
I21
I81
I150
tp4863
a(I324
I19
I21
I81
I150
tp4864
a(I324
I18
I21
I81
I150
tp4865
a(I324
I17
I21
I81
I150
tp4866
a(I324
I16
I21
I81
I150
tp4867
a(I324
I15
I21
I81
I149
tp4868
a(I324
I14
I19
I82
I149
tp4869
a(I323
I20
I21
I81
I149
tp4870
a(I323
I19
I21
I81
I150
tp4871
a(I323
I18
I21
I81
I150
tp4872
a(I323
I17
I21
I81
I150
tp4873
a(I323
I16
I20
I82
I150
tp4874
a(I323
I15
I21
I85
I149
tp4875
a.